Motorola DSP56000 Assembler  Version 4.1.1   00-01-00  00:00:00  dsp.asm
  Page 1



1         00FFE9         HSR       equ     $ffe9                             ;Ho
st Status Register
2         00FFEB         HRX       equ     $ffeb                             ;Ho
st Receive Register
3         00FFEB         HTX       equ     $ffeb                             ;Ho
st Transmit Register
4         00FFE0         PBC       equ     $ffe0                             ;Po
rt B Control register
5         00FFFE         BCR       equ     $fffe                             ;Bu
s Control Register
6         00FFE8         HCR       EQU     $FFE8                             ; H
ost Control Register
7         00FFFF         IPR       EQU     $FFFF                             ; I
nterrupt Priority Register
8         00FFEC         CRA       equ     $ffec                             ;SS
I control register A
9         00FFED         CRB       equ     $ffed                             ;SS
I control register B
10     
11                       rec       MACRO   dest
12   m                             jclr    #0,x:<<HSR,*
13   m                             movep   x:<<HRX,dest
14   m                             ENDM
15                       env       MACRO   source
16   m                             jclr    #1,x:<<HSR,*
17   m                             movep   source,x:<<HTX
18   m                             ENDM
19     
20        000300         SIZE_DEBUG equ    $300                              ;ta
ille du noyau...
21     
22        P:0000                   org     p:$0
23        P:0000 0AF080            jmp     INIT_WITH_PROTECT
                 007C4B
24     
25        P:0002                   org     p:2
26        P:0002 0BF080            jsr     STACK                             ;ST
ACK ERROR
                 007C7F
27     
28        P:0004                   org     p:4
29        P:0004 0BF080            jsr     TRACE                             ;TR
ACE
                 007C8A
30        P:0006                   org     p:6
31        P:0006 0BF080            jsr     SWI                               ;SW
I
                 007C95
32        P:003E                   org     p:$3e
33        P:003E 0BF080            jsr     III                               ;II
I
                 007CA0
34     
35        P:0040                   org     p:$40
36                       START
37        P:0040 0C0040            jmp     *
38     
39     
40     
41                       ;------------------------------------------------------
------------------------
Motorola DSP56000 Assembler  Version 4.1.1   00-01-00  00:00:00  dsp.asm
  Page 2



42        P:7BA9                   org     p:$7ea9-SIZE_DEBUG                ;7e
a9= dbut du TOS
43                       START_DEBUG
44        P:7BA9                   dc      'DSP'
45                       MAIN
46     
47     
48                       ;------------------------------------------------------
------------------------
49                       ;  La boucle principale du debugeur  *
50                       ;------------------------------------------------------
------------------------
51                       AGAIN_T
52        P:7BAA 44F400            move              #>'CMD',x0              ;id
 COMMAND
                 434D44
53                                 rec     a
56        P:7BAF 60F445            cmp     x0,a      #TAB_ROUT,r0
                 007BBA
57        P:7BB1 0AF0A2            jne     AGAIN_T                           ; =
> attente
                 007BAA
58                                 rec     n0                                ;No
 de CMD
61        P:7BB6 000000            nop
62        P:7BB7 07E890            move              p:(r0+n0),r0
63        P:7BB8 000000            nop
64        P:7BB9 0AE080            jmp     (r0)
65     
66     
67                       ;------------------------------------------------------
------------------------
68                       ; liste des fonctions DISPO
69                       ;------------------------------------------------------
------------------------
70                       TAB_ROUT
71        P:7BBA                   dc      P_DUMP
72        P:7BBB                   dc      X_DUMP
73        P:7BBC                   dc      Y_DUMP
74        P:7BBD                   dc      L_DUMP
75        P:7BBE                   dc      RUN
76        P:7BBF                   dc      P_REC
77        P:7BC0                   dc      X_REC
78        P:7BC1                   dc      Y_REC
79        P:7BC2                   dc      L_REC
80     
81                       ;------------------------------------------------------
------------------------
82                       P_DUMP    rec     r0
85                                 rec     a
88        P:7BC9 200003            tst     a
89        P:7BCA 0AF0AA            jeq     _loop
                 007BD1
90        P:7BCC 06CE00            do      a,_loop
                 007BD0
91                                 env     P:(r0)+
94        P:7BD1 0AF080  _loop     jmp     AGAIN_T
                 007BAA
95                       ;------------------------------------------------------
------------------------
96     
Motorola DSP56000 Assembler  Version 4.1.1   00-01-00  00:00:00  dsp.asm
  Page 3



97                       ;------------------------------------------------------
------------------------
98                       X_DUMP    rec     r0
101                                rec     a
104       P:7BD9 200003            tst     a
105       P:7BDA 0AF0AA            jeq     _loop
                 007BE1
106       P:7BDC 06CE00            do      a,_loop
                 007BE0
107                                env     X:(r0)+
110       P:7BE1 0AF080  _loop     jmp     AGAIN_T
                 007BAA
111                      ;------------------------------------------------------
------------------------
112    
113    
114                      ;------------------------------------------------------
------------------------
115                      Y_DUMP
116                                rec     r0
119                                rec     a
122       P:7BE9 200003            tst     a
123       P:7BEA 0AF0AA            jeq     _loop
                 007BF1
124       P:7BEC 06CE00            do      a,_loop
                 007BF0
125                                env     Y:(r0)+
128       P:7BF1 0AF080  _loop     jmp     AGAIN_T
                 007BAA
129                      ;------------------------------------------------------
------------------------
130    
131                      ;------------------------------------------------------
------------------------
132                      L_DUMP
133                                rec     r0
136                                rec     a
139       P:7BF9 200003            tst     a
140       P:7BFA 0AF0AA            jeq     _loop
                 007C05
141       P:7BFC 06CE00            do      a,_loop
                 007C04
142       P:7BFE 42D800            move              l:(r0)+,x
143                                env     x1
146                                env     x0
149       P:7C05 0AF080  _loop     jmp     AGAIN_T
                 007BAA
150                      ;------------------------------------------------------
------------------------
151    
152                      ;------------------------------------------------------
------------------------
153                      P_REC     rec     r0
156                                rec     a
159       P:7C0D 200003            tst     a
160       P:7C0E 0AF0AA            jeq     _loop
                 007C15
161       P:7C10 06CE00            do      a,_loop
                 007C14
162                                rec     P:(r0)+
165       P:7C15 0AF080  _loop     jmp     AGAIN_T
Motorola DSP56000 Assembler  Version 4.1.1   00-01-00  00:00:00  dsp.asm
  Page 4



                 007BAA
166                      ;------------------------------------------------------
------------------------
167    
168                      ;------------------------------------------------------
------------------------
169                      X_REC     rec     r0
172                                rec     a
175       P:7C1D 200003            tst     a
176       P:7C1E 0AF0AA            jeq     _loop
                 007C25
177       P:7C20 06CE00            do      a,_loop
                 007C24
178                                rec     X:(r0)+
181       P:7C25 0AF080  _loop     jmp     AGAIN_T
                 007BAA
182                      ;------------------------------------------------------
------------------------
183    
184    
185                      ;------------------------------------------------------
------------------------
186                      Y_REC     rec     r0
189                                rec     a
192       P:7C2D 200003            tst     a
193       P:7C2E 0AF0AA            jeq     _loop
                 007C35
194       P:7C30 06CE00            do      a,_loop
                 007C34
195                                rec     y:(r0)+
198       P:7C35 0AF080  _loop     jmp     AGAIN_T
                 007BAA
199                      ;------------------------------------------------------
------------------------
200    
201    
202                      ;------------------------------------------------------
------------------------
203                      L_REC     rec     r0
206                                rec     a
209       P:7C3D 200003            tst     a
210       P:7C3E 0AF0AA            jeq     _loop
                 007C49
211       P:7C40 06CE00            do      a,_loop
                 007C48
212                                rec     x1
215                                rec     x0
218       P:7C48 425800            move              x,l:(r0)+
219       P:7C49 0AF080  _loop     jmp     AGAIN_T
                 007BAA
220                      ;------------------------------------------------------
------------------------
221    
222    
223    
224    
225    
226    
227                      ;------------------------------------------------------
------------------------
228                      ; deux cas pour les inits: avec ou sans la protection..
Motorola DSP56000 Assembler  Version 4.1.1   00-01-00  00:00:00  dsp.asm
  Page 5



. eh eh
229                      ;------------------------------------------------------
------------------------
230                      INIT_WITH_PROTECT
231                                env     p:DMSP
234                                env     p:DMSP+1
237                                rec     a
240       P:7C56 44F400            move              #>4,x0
                 000004
241       P:7C58 200045            cmp     x0,a
242       P:7C59 0AF0A7            jgt     Y_DUMP                            ;er
reur trop importante => on plante le DSP
                 007BE3
243                                env     #>7614                            ;ok
 ca a march (nombre magique)
246    
247    
248                      ;------------------------------------------------------
------------------------
249                      INIT
250       P:7C5F 08F4A8            movep             #4,x:HCR                ;au
torise HC
                 000004
251       P:7C61 08F4A0            movep             #1,x:PBC                ;Po
rt B en mode HOST
                 000001
252       P:7C63 08F4BF            movep             #$c00,x:IPR             ;HC
 PRIORITE 3 le reste coup
                 000C00
253       P:7C65 08F4BE            movep             #$0,x:BCR               ;0 
WS
                 000000
254    
255    
256       P:7C67 44F400            move              #>$bf080,x0
                 0BF080
257       P:7C69 071E04            move              x0,p:$1e
258       P:7C6A 44F400            move              #HC_EXEP,x0
                 007CAB
259       P:7C6C 071F04            move              x0,p:$1f                ;pl
ace le jsr HC
260    
261       P:7C6D 00FCB8            andi    #<%11111100,mr                    ;pa
sse en IPL0
262                                                                          ;jm
p    *
263    
264    
265       P:7C6E 0AA803            bclr    #3,x:HCR
266                                                                          ;*-
-----------------------*
267                                                                          ;* 
si y a jmp init en 0
268                                                                          ;* 
remplace par un saut en $40
269                                                                          ;* 
ca le fait que au lancement ...
270                                                                          ;*-
-----------------------*
271       P:7C6F 07810E            move              p:1,a
272       P:7C70 44F400            move              #>INIT,x0
Motorola DSP56000 Assembler  Version 4.1.1   00-01-00  00:00:00  dsp.asm
  Page 6



                 007C5F
273       P:7C72 44F445            cmp     x0,a      #>INIT_WITH_PROTECT,x0
                 007C4B
274       P:7C74 0AF0AA            jeq     _ok0
                 007C79
275       P:7C76 200045            cmp     x0,a
276       P:7C77 0AF0A2            jne     MAIN
                 007BAA
277                      _ok0
278       P:7C79 44F400            move              #>$40,x0
                 000040
279       P:7C7B 070104            move              x0,p:1
280       P:7C7C 0AA803            bclr    #3,x:HCR                          ;pl
ace HF2  0
281       P:7C7D 0AF080            jmp     MAIN
                 007BAA
282    
283                      ;------------------------------------------------------
------------------------
284                      ; arret sur STACK ERROR
285                      ;------------------------------------------------------
------------------------
286                      STACK
287       P:7C7F 0AA823            bset    #3,x:HCR                          ;pl
ace HF2  1
288                                env     #>'CTK'
291                                env     #0
294       P:7C88 0AF080            jmp     SAVE_REG
                 007CB6
295    
296                      ;------------------------------------------------------
------------------------
297                      ; arret sur TRACE
298                      ;------------------------------------------------------
------------------------
299                      TRACE
300       P:7C8A 0AA823            bset    #3,x:HCR                          ;pl
ace HF2  1
301                                env     #>'CTK'
304                                env     #1
307       P:7C93 0AF080            jmp     SAVE_REG
                 007CB6
308    
309                      ;------------------------------------------------------
------------------------
310                      ; arret sur SWI
311                      ;------------------------------------------------------
------------------------
312                      SWI
313       P:7C95 0AA823            bset    #3,x:HCR                          ;pl
ace HF2  1
314                                env     #>'CTK'
317                                env     #2
320       P:7C9E 0AF080            jmp     SAVE_REG
                 007CB6
321    
322                      ;------------------------------------------------------
------------------------
323                      ; arret sur III
324                      ;------------------------------------------------------
------------------------
Motorola DSP56000 Assembler  Version 4.1.1   00-01-00  00:00:00  dsp.asm
  Page 7



325                      III
326       P:7CA0 0AA823            bset    #3,x:HCR                          ;pl
ace HF2  1
327                                env     #>'CTK'
330                                env     #3
333       P:7CA9 0AF080            jmp     SAVE_REG
                 007CB6
334    
335                      ;------------------------------------------------------
------------------------
336                      ; H C =interruption par le 40
337                      ;------------------------------------------------------
------------------------
338                      HC_EXEP
339       P:7CAB 0AA823            bset    #3,x:HCR                          ;pl
ace HF2  1
340                                env     #>'CTK'
343                                env     #4
346       P:7CB4 0AF080            jmp     SAVE_REG
                 007CB6
347    
348    
349                      ;------------------------------------------------------
------------------------
350                      ; la  on sauve l'etat du CPU
351                      ;------------------------------------------------------
------------------------
352                      SAVE_REG
353       P:7CB6 0003F8            or      #3,mr                             ;IP
L=3
354    
355    
356                                                                          ;*-
--------------------*
357                                                                          ;* 
SAUVE AGU
358                                                                          ;*-
--------------------*
359                                env     r0
362                                env     n0
365                                env     m0
368                                env     r1
371                                env     n1
374                                env     m1
377                                env     r2
380                                env     n2
383                                env     m2
386                                env     r3
389                                env     n3
392                                env     m3
395                                env     r4
398                                env     n4
401                                env     m4
404                                env     r5
407                                env     n5
410                                env     m5
413                                env     r6
416                                env     n6
419                                env     m6
422                                env     r7
425                                env     n7
Motorola DSP56000 Assembler  Version 4.1.1   00-01-00  00:00:00  dsp.asm
  Page 8



428                                env     m7
431    
432                                                                          ;*-
--------------------*
433                                                                          ;* 
SAUVE ALU
434                                                                          ;*-
--------------------*
435                                env     a2
438                                env     a1
441                                env     a0
444                                env     b2
447                                env     b1
450                                env     b0
453    
454                                env     x1
457                                env     x0
460    
461                                env     y1
464                                env     y0
467    
468    
469                                                                          ;*-
--------------------*
470                                                                          ;* 
SAUVE PCU
471                                                                          ;*-
--------------------*
472                                env     LA
475                                env     LC
478                                env     SSL
481                                env     SSH                               ;sp
-1
484                                env     SP                                ;sa
uve SP-1
487    
488    
489                                                                          ;*-
--------------------*
490                                                                          ;* 
recoit le contenu du buffer HOST  recevoir
491                                                                          ;* 
et le renvoie immdiatemment au 040
492                                                                          ;*-
--------------------*
493       P:7D2C 44F400            move              #>'CTK',x0
                 43544B
494       P:7D2E 60F400            move              #HOST_BUF,r0
                 007DE9
495                      _loop0    rec     a
498       P:7D33 07588E            move              a,p:(r0)+
499       P:7D34 200045            cmp     x0,a
500       P:7D35 0AF0A2            jne     _loop0
                 007D30
501    
502       P:7D37 60F400            move              #HOST_BUF,r0
                 007DE9
503       P:7D39 000000            nop
504       P:7D3A 07D88E  _loop00   move              p:(r0)+,a
505                                env     a
508       P:7D3E 200045            cmp     x0,a
Motorola DSP56000 Assembler  Version 4.1.1   00-01-00  00:00:00  dsp.asm
  Page 9



509       P:7D3F 0AF0A2            jne     _loop00
                 007D3A
510    
511    
512    
513    
514                                                                          ;*-
--------------------*
515                                                                          ;* 
recoit le contenu du buffer HOST  rmettre
516                                                                          ;*-
--------------------*
517       P:7D41 60F400            move              #HOST_BUF,r0
                 007DE9
518                      _loop1    rec     a
521       P:7D46 07588E            move              a,p:(r0)+
522       P:7D47 200045            cmp     x0,a
523       P:7D48 0AF0A2            jne     _loop1
                 007D43
524    
525    
526    
527    
528       P:7D4A 0AA803            bclr    #3,x:HCR                          ;pl
ace HF2  0
529       P:7D4B 0AF080            jmp     MAIN
                 007BAA
530                      ;------------------------------------------------------
------------------------
531    
532    
533    
534    
535    
536                      ;------------------------------------------------------
------------------------
537                      ; restauration des registres & compagnie
538                      ;------------------------------------------------------
------------------------
539                      RESTORE_REG
540                      RUN
541                      ;------------------------------------------------------
------------------------
542                                                                          ;*-
--------------------*
543                                                                          ; j
e remet mes exceptions
544                                                                          ;*-
--------------------*
545       P:7D4D 44F400            move              #>$bf080,x0
                 0BF080
546    
547       P:7D4F 300200            move              #2,r0                   ;ST
ACK ERROR
548       P:7D50 45F400            move              #STACK,x1
                 007C7F
549       P:7D52 075884            move              x0,p:(r0)+
550       P:7D53 075885            move              x1,p:(r0)+
551    
552       P:7D54 300400            move              #4,r0                   ;TR
ACE
Motorola DSP56000 Assembler  Version 4.1.1   00-01-00  00:00:00  dsp.asm
  Page 10



553       P:7D55 45F400            move              #TRACE,x1
                 007C8A
554       P:7D57 075884            move              x0,p:(r0)+
555       P:7D58 075885            move              x1,p:(r0)+
556    
557       P:7D59 300600            move              #6,r0                   ;SW
I
558       P:7D5A 45F400            move              #SWI,x1
                 007C95
559       P:7D5C 075884            move              x0,p:(r0)+
560       P:7D5D 075885            move              x1,p:(r0)+
561    
562       P:7D5E 303E00            move              #$3e,r0                 ;II
I
563       P:7D5F 45F400            move              #III,x1
                 007CA0
564       P:7D61 075884            move              x0,p:(r0)+
565       P:7D62 075885            move              x1,p:(r0)+
566    
567    
568    
569                                                                          ;*-
--------------------*
570                                                                          ;* 
je rmet les trucs coincs ds le HOST
571                                                                          ;*-
--------------------*
572       P:7D63 60F400            move              #HOST_BUF,r0
                 007DE9
573       P:7D65 44F400            move              #>'CTK',x0
                 43544B
574                      _loop1
575       P:7D67 07D88E            move              p:(r0)+,a
576       P:7D68 200045            cmp     x0,a
577       P:7D69 0AF0AA            jeq     _fin0
                 007D70
578                                env     a
581       P:7D6E 0AF080            jmp     _loop1
                 007D67
582                      _fin0
583    
584                                                                          ;*-
--------------------*
585                                                                          ;* 
RESTORE AGU
586                                                                          ;*-
--------------------*
587                                rec     r0
590                                rec     n0
593                                rec     m0
596                                rec     r1
599                                rec     n1
602                                rec     m1
605                                rec     r2
608                                rec     n2
611                                rec     m2
614                                rec     r3
617                                rec     n3
620                                rec     m3
623                                rec     r4
626                                rec     n4
Motorola DSP56000 Assembler  Version 4.1.1   00-01-00  00:00:00  dsp.asm
  Page 11



629                                rec     m4
632                                rec     r5
635                                rec     n5
638                                rec     m5
641                                rec     r6
644                                rec     n6
647                                rec     m6
650                                rec     r7
653                                rec     n7
656                                rec     m7
659    
660                                                                          ;*-
--------------------*
661                                                                          ;* 
RESTORE ALU
662                                                                          ;*-
--------------------*
663                                rec     a2
666                                rec     a1
669                                rec     a0
672                                rec     b2
675                                rec     b1
678                                rec     b0
681    
682                                rec     x1
685                                rec     x0
688                                rec     y1
691                                rec     y0
694    
695    
696                                                                          ;*-
--------------------*
697                                                                          ;* 
RESTORE PCU
698                                                                          ;*-
--------------------*
699                                rec     LA
702                                rec     LC
705    
706                                rec     SP                                ;r
cupere SP-1
709                                rec     SSH                               ;sp
+1
712                                rec     SSL
715       P:7DE5 000000            nop
716    
717       P:7DE6 0AA9A3            jset    #3,x:HSR,*
                 007DE6
718    
719       P:7DE8 000004            rti
720    
721                      ;*-----------------------------------------------------
------------------------
722                      ;* Un buffer pour sauver les registres
723                      ;*-----------------------------------------------------
------------------------
724                      ;SAVE_AGU       ds      3*8
725                      ;SAVE_ALU       ds      6+4
726                      ;SAVE_LA                ds      1
727                      ;SAVE_LC                ds      1
728                      ;SAVE_SSL       ds      1
Motorola DSP56000 Assembler  Version 4.1.1   00-01-00  00:00:00  dsp.asm
  Page 12



729                      ;SAVE_SSH       ds      1
730                      ;SAVE_SP                ds      1
731                      ;SAVE_SS                ds      15*2
732                      ;------------------------------------------------------
------------------------
733       P:7DE9         HOST_BUF  dc      'CTK'
734       P:7DEA                   ds      5
735    
736                      ;------------------------------------------------------
-----------------------
737                      ; MAGIE !! MAGIE !!
738                      ;------------------------------------------------------
-----------------------
739       P:7DEF                   dc      $5b042e,$312e02
740       P:7DF1         DMSP      dc      $00359F,$0078BA
741                      ;------------------------------------------------------
-----------------------
742    
743    
744                      END_DEBUG
745    
746    
747    

0    Errors
0    Warnings
