Motorola DSP56000 Assembler  Version 4.1.1   00-01-00  00:00:00  DSP301.ASM
  Page 1



1      
2      
3                        ;------------------------------------------------------
------------------------
4                        ;HOST EQUATES
5                        ;------------------------------------------------------
------------------------
6         00FFCD         M_DTXS    equ     $FFCD                             ;sl
ave transmit fifo
7         00FFCB         M_DRXS    equ     $FFCB                             ;sl
ave receive fifo
8      
9      
10        00FFC9         M_DSR     equ     $FFC9                             ;DS
P Status register
11        00FFC5         M_DCTR    EQU     $FFC5                             ; D
SP CONTROL REGISTER (DCTR)
12        000006         M_HINT    EQU     6                                 ; H
ost Interrupt A
13                       ;------------------------------------------------------
------------------------
14     
15     
16                       ;------------------------------------------------------
------------------------
17                       ;       PLL EQUATES
18                       ;------------------------------------------------------
------------------------
19        00FFFD         M_PCTL    EQU     $FFFD                             ; P
LL Control Register
20     
21        000FFF         M_MF      EQU     $FFF                              ; M
ultiplication Factor Bits Mask (MF0-MF11)
22        007000         M_DF      EQU     $7000                             ; D
ivision Factor Bits Mask (DF0-DF2)
23        00000F         M_XTLR    EQU     15                                ; X
TAL Range select bit
24        000010         M_XTLD    EQU     16                                ; X
TAL Disable Bit
25        000011         M_PSTP    EQU     17                                ; S
TOP Processing State Bit
26        000012         M_PEN     EQU     18                                ; P
LL Enable Bit
27        000013         M_PCOD    EQU     19                                ; P
LL Clock Output Disable Bit
28        F00000         M_PD      EQU     $F00000                           ; P
reDivider Factor Bits Mask (PD0-PD3)
29                       ;------------------------------------------------------
------------------------
30     
31                       ;------------------------------------------------------
------------------------
32                       ; Bus Interface Unit
33                       ;------------------------------------------------------
------------------------
34        00FFFB         M_BCR     EQU     $FFFB                             ; B
us Control Register
35        00FFF9         M_AAR0    EQU     $FFF9                             ; A
ddress Attribute Register 0
36        00FFF8         M_AAR1    EQU     $FFF8                             ; A
ddress Attribute Register 1
Motorola DSP56000 Assembler  Version 4.1.1   00-01-00  00:00:00  DSP301.ASM
  Page 2



37        00FFF7         M_AAR2    EQU     $FFF7                             ; A
ddress Attribute Register 2
38        00FFF6         M_AAR3    EQU     $FFF6                             ; A
ddress Attribute Register 3
39     
40                       ;       Address Attribute Registers
41        000003         M_BAT     EQU     $3                                ; E
xternal Access Type and Pin Definition Bits Mask (BAT0-BAT1)
42        000002         M_BAAP    EQU     2                                 ; A
ddress Attribute Pin Polarity
43        000003         M_BPEN    EQU     3                                 ; P
rogram Space Enable
44        000004         M_BXEN    EQU     4                                 ; X
 Data Space Enable
45        000005         M_BYEN    EQU     5                                 ; Y
 Data Space Enable
46        000006         M_BAM     EQU     6                                 ; A
ddress Muxing
47        000007         M_BPAC    EQU     7                                 ; P
acking Enable
48        000F00         M_BNC     EQU     $F00                              ; N
umber of Address Bits to Compare Mask (BNC0-BNC3)
49        FFF000         M_BAC     EQU     $FFF000                           ; A
ddress to Compare Bits Mask (BAC0-BAC11)
50                       ;------------------------------------------------------
------------------------
51     
52     
53                       ;------------------------------------------------------
------------------------
54                       ; quelques macro bien utiles
55                       ;------------------------------------------------------
------------------------
56                       rec       MACRO   dest
57   m                             jclr    #2,x:<<M_DSR,*
58   m                             movep   x:<<M_DRXS,dest
59   m                             nop
60   m                             ENDM
61     
62                       env       MACRO   dest
63   m                             jclr    #1,x:<<M_DSR,*
64   m                             movep   dest,x:<<M_DTXS
65   m                             nop
66   m                             ENDM
67     
68                       ;------------------------------------------------------
------------------------
69     
70     
71     
72     
73        000300         SIZE_DEBUG equ    $300                              ;ta
ille du noyau...
74     
75        P:0000                   org     p:$0
76        P:0000 0AF080            jmp     >INIT_WITH_PROTECT
                 0001BC
77     
78        P:0002 0BF080            jsr     >STACK                            ;ST
ACK ERROR
                 0001F0
Motorola DSP56000 Assembler  Version 4.1.1   00-01-00  00:00:00  DSP301.ASM
  Page 3



79     
80        P:0004 0BF080            jsr     >III                              ;Il
legal Instruction Interrupt
                 000212
81     
82        P:0006 000000            nop
83        P:0007 000000            nop                                       ;De
bug Request
84     
85     
86        P:0008 0BF080            jsr     >TRAP                             ;an
ciennement SWI
                 000202
87     
88                                 dup     (256-*)
89   m                             nop
90   m                             endm
337    
338    
339                                                                          ;or
g    p:$100
340                      START
341       P:0100 000000            nop
342       P:0101 000000            nop
343       P:0102 000000            nop
344       P:0103 000000            nop
345    
346    
347    
348       P:0104 0C0100            jmp     START
349    
350                      ;------------------------------------------------------
------------------------
351                                                                          ;or
g    p:$7ea9-SIZE_DEBUG              ;7ea9= dbut du TOS
352                      START_DEBUG
353       P:0105                   dc      'DSP'
354    
355                      MAIN
356    
357                      ;------------------------------------------------------
------------------------
358                      ;  La boucle principale du debugeur  *
359                      ;------------------------------------------------------
------------------------
360                      AGAIN_T
361       P:0106 44F400            move              #>'CMD',x0              ;id
 COMMAND
                 434D44
362                                rec     a
366       P:010C 60F445            cmp     x0,a      #TAB_ROUT,r0
                 000117
367       P:010E 0E2106            jne     AGAIN_T                           ; =
> attente
368                                rec     n0                                ;No
 de CMD
372       P:0113 000000            nop
373       P:0114 07E890            move              p:(r0+n0),r0
374       P:0115 000000            nop
375       P:0116 0AE080            jmp     (r0)
376    
Motorola DSP56000 Assembler  Version 4.1.1   00-01-00  00:00:00  DSP301.ASM
  Page 4



377    
378                      ;------------------------------------------------------
------------------------
379                      ; liste des fonctions DISPO
380                      ;------------------------------------------------------
------------------------
381                      TAB_ROUT
382       P:0117                   dc      P_DUMP
383       P:0118                   dc      X_DUMP
384       P:0119                   dc      Y_DUMP
385       P:011A                   dc      L_DUMP
386       P:011B                   dc      RUN
387       P:011C                   dc      P_REC
388       P:011D                   dc      X_REC
389       P:011E                   dc      Y_REC
390       P:011F                   dc      L_REC
391    
392                      ;------------------------------------------------------
------------------------
393                      P_DUMP    rec     r0
397                                rec     a
401       P:0128 200003            tst     a
402       P:0129 0AF0AA            jeq     _loop
                 000132
403       P:012B 06CE00            do      a,_loop
                 000131
404                                env     P:(r0)+
408       P:0131 000000            nop
409       P:0132 0C0106  _loop     jmp     AGAIN_T
410                      ;------------------------------------------------------
------------------------
411    
412                      ;------------------------------------------------------
------------------------
413                      X_DUMP    rec     r0
417                                rec     a
421       P:013B 200003            tst     a
422       P:013C 0AF0AA            jeq     _loop
                 000144
423       P:013E 06CE00            do      a,_loop
                 000143
424                                env     X:(r0)+
428       P:0144 0C0106  _loop     jmp     AGAIN_T
429                      ;------------------------------------------------------
------------------------
430    
431    
432                      ;------------------------------------------------------
------------------------
433                      Y_DUMP
434                                rec     r0
438                                rec     a
442       P:014D 200003            tst     a
443       P:014E 0AF0AA            jeq     _loop
                 000156
444       P:0150 06CE00            do      a,_loop
                 000155
445                                env     Y:(r0)+
449       P:0156 0C0106  _loop     jmp     AGAIN_T
450                      ;------------------------------------------------------
------------------------
Motorola DSP56000 Assembler  Version 4.1.1   00-01-00  00:00:00  DSP301.ASM
  Page 5



451    
452                      ;------------------------------------------------------
------------------------
453                      L_DUMP
454                                rec     r0
458                                rec     a
462       P:015F 200003            tst     a
463       P:0160 0AF0AA            jeq     _loop
                 00016D
464       P:0162 06CE00            do      a,_loop
                 00016C
465       P:0164 42D800            move              l:(r0)+,x
466                                env     x1
470                                env     x0
474       P:016D 0C0106  _loop     jmp     AGAIN_T
475                      ;------------------------------------------------------
------------------------
476    
477                      ;------------------------------------------------------
------------------------
478                      P_REC     rec     r0
482                                rec     a
486       P:0176 200003            tst     a
487       P:0177 0AF0AA            jeq     _loop
                 000180
488       P:0179 06CE00            do      a,_loop
                 00017F
489                                rec     P:(r0)+
493       P:017F 000000            nop
494       P:0180 0C0106  _loop     jmp     AGAIN_T
495                      ;------------------------------------------------------
------------------------
496    
497                      ;------------------------------------------------------
------------------------
498                      X_REC     rec     r0
502                                rec     a
506       P:0189 200003            tst     a
507       P:018A 0AF0AA            jeq     _loop
                 000192
508       P:018C 06CE00            do      a,_loop
                 000191
509                                rec     X:(r0)+
513       P:0192 0C0106  _loop     jmp     AGAIN_T
514                      ;------------------------------------------------------
------------------------
515    
516    
517                      ;------------------------------------------------------
------------------------
518                      Y_REC     rec     r0
522                                rec     a
526       P:019B 200003            tst     a
527       P:019C 0AF0AA            jeq     _loop
                 0001A4
528       P:019E 06CE00            do      a,_loop
                 0001A3
529                                rec     y:(r0)+
533       P:01A4 0C0106  _loop     jmp     AGAIN_T
534                      ;------------------------------------------------------
------------------------
Motorola DSP56000 Assembler  Version 4.1.1   00-01-00  00:00:00  DSP301.ASM
  Page 6



535    
536    
537                      ;------------------------------------------------------
------------------------
538                      L_REC     rec     r0
542                                rec     a
546       P:01AD 200003            tst     a
547       P:01AE 0AF0AA            jeq     _loop
                 0001BB
548       P:01B0 06CE00            do      a,_loop
                 0001BA
549                                rec     x1
553                                rec     x0
557       P:01BA 425800            move              x,l:(r0)+
558       P:01BB 0C0106  _loop     jmp     AGAIN_T
559                      ;------------------------------------------------------
------------------------
560    
561    
562    
563    
564    
565    
566                      ;------------------------------------------------------
------------------------
567                      ; deux cas pour les inits: avec ou sans la protection..
. eh eh
568                      ;------------------------------------------------------
------------------------
569                      INIT_WITH_PROTECT
570                                env     p:DMSP
574                                env     p:DMSP+1
578                                rec     a
582       P:01CA 44F400            move              #>4,x0
                 000004
583       P:01CC 200045            cmp     x0,a
584       P:01CD 0E7145            jgt     Y_DUMP                            ;er
reur trop importante => on plante le DSP
585                                env     #>7614                            ;ok
 ca a march (nombre magique)
589    
590       P:01D3 0A8985            jclr    #5,x:<<M_DSR,*                    ;at
tend que le 040 mette HF2
                 0001D3
591    
592                      ;------------------------------------------------------
------------------------
593    
594    
595    
596                      INIT
597                                                                          ;an
di   #<%11111100,mr  ;passe en IPL0
598    
599                      ;------------------------------------------------------
------------------------
600                      ; rglage de la PLL
601                      ;------------------------------------------------------
------------------------
602                      ; XTAL disabled moins de noise
603                      ; Pll ENable
Motorola DSP56000 Assembler  Version 4.1.1   00-01-00  00:00:00  DSP301.ASM
  Page 7



604                      ; Clock Output Disabled moins de noise
605                      ;
606                      ; Attention, le temps max pour avoir une PLL oprationn
elle est
607                      ;  1000 * ETC * PDF     ..koa c'est ETC ???
608                      ;
609                      ;------------------------------------------------------
------------------------
610                      ; plusieurs vitesses possibles
611                      ;       FREQUENCE       ratio   DF      PDF     MF0
612                      ;       25              0.5     0       16      8
613                      ;       50              1       0       8       8
614                      ;       62.5            1.25    0       8       10
615                      ;       75              1.5     0       8       12
616                      ;       81.25           1.625   0       8       13
617                      ;------------------------------------------------------
------------------------
618       000008         PDF       equ     8
619       00000D         MF        equ     13
620    
621    
622       P:01D5 08F4BD            movep             #(MF-1)|(1<<M_PEN)|((PDF-1)
<<20),x:<<M_PCTL
                 74000C
623    
624       P:01D7 44F400            move              #>1000*PDF,x0
                 001F40
625                                .LOOP   x0
627       P:01DB 000000            nop
628                                .ENDL
630    
631    
632    
633                      ;------------------------------------------------------
------------------------
634    
635                      ;------------------------------------------------------
------------------------
636                      ; rglage de la RAM externe
637                      ;------------------------------------------------------
------------------------
638                      ;
639                      ; AA0 sert de CS et est donc active low elle est assert
ed sur tout acces externe
640                      ;
641                      ; AA3           tat            A16
642                      ; inactive      0               0V
643                      ; active        1               5V
644                      ;
645                      ;les 384 ko de Static Ram sont diviss en 2 bank de 64 
Kw : Low et High
646                      ;       ACCES           BANK            AA3
647                      ; P:0  64K             H               active
648                      ; P:64K  128K          L               inactive
649                      ; X:0  64K             H               active
650                      ; Y:0  64K             L               inactive
651                      ;------------------------------------------------------
------------------------
652                      boot
653    
654       P:01DC 08F4B9            movep             #>%01|(1<<M_BPEN)|(1<<M_BXE
Motorola DSP56000 Assembler  Version 4.1.1   00-01-00  00:00:00  DSP301.ASM
  Page 8



N)|(1<<M_BYEN),x:<<M_AAR0 ;AAR0 active(Low) sur acces  la ram externe
                 000039
655    
656       P:01DE 08F4B6            movep             #>%01|(1<<M_BPEN)|(1<<M_BXE
N)|(8<<8)|($00<<12)|(1<<M_BAAP),x:<<M_AAR3
                 00081D
657    
658       P:01E0 08F4BB            movep             #(1<<16)|(1<<13)|(1),x:<<M_
BCR ;1 WS sur AA3,AA0 et default
                 012001
659    
660       P:01E2 0AFA6E            bset    #14,omr
661    
662                      ;------------------------------------------------------
------------------------
663    
664    
665                                                                          ;*-
-----------------------*
666                                                                          ;* 
si y a jmp init en 0
667                                                                          ;* 
remplace par un saut en $40
668                                                                          ;* 
ca le fait que au lancement ...
669                                                                          ;*-
-----------------------*
670       P:01E3 07810E            move              p:1,a
671       P:01E4 44F400            move              #>INIT,x0
                 0001D5
672       P:01E6 44F445            cmp     x0,a      #>INIT_WITH_PROTECT,x0
                 0001BC
673       P:01E8 0AF0AA            jeq     _ok0
                 0001EC
674       P:01EA 200045            cmp     x0,a
675       P:01EB 0E2106            jne     MAIN
676                      _ok0
677       P:01EC 44F400            move              #>$100,x0
                 000100
678       P:01EE 070104            move              x0,p:1
679       P:01EF 0C0106            jmp     MAIN
680    
681                      ;------------------------------------------------------
------------------------
682                      ; arret sur STACK ERROR
683                      ;------------------------------------------------------
------------------------
684                      STACK
685       P:01F0 0A8526            bset    #M_HINT,x:<<M_DCTR                ;d
clenche HINT
686       P:01F1 0A8985            jclr    #5,x:<<M_DSR,*                    ;at
tend que le 040 mette HF2
                 0001F1
687       P:01F3 0A8506            bclr    #M_HINT,x:<<M_DCTR                ;co
upe HINTA
688       P:01F4 0A89A5            jset    #5,x:<<M_DSR,*                    ;at
tend que le 040 efface HF2
                 0001F4
689    
690                                env     #>'CTK'
694                                env     #0
Motorola DSP56000 Assembler  Version 4.1.1   00-01-00  00:00:00  DSP301.ASM
  Page 9



698       P:0200 0AF080            jmp     SAVE_REG
                 000236
699    
700                      TRACE
701    
702                      ;------------------------------------------------------
------------------------
703                      ; arret sur TRAP ( ancien SWI )
704                      ;------------------------------------------------------
------------------------
705                      TRAP
706       P:0202 0A8526            bset    #M_HINT,x:<<M_DCTR                ;d
clenche HINT
707       P:0203 0A8985            jclr    #5,x:<<M_DSR,*                    ;at
tend que le 040 mette HF2
                 000203
708       P:0205 0A8506            bclr    #M_HINT,x:<<M_DCTR                ;co
upe HINTA
709    
710                                env     #>'CTK'
714                                env     #>2
718       P:0210 0AF080            jmp     SAVE_REG
                 000236
719    
720                      ;------------------------------------------------------
------------------------
721                      ; arret sur III
722                      ;------------------------------------------------------
------------------------
723                      III
724       P:0212 0A8526            bset    #M_HINT,x:<<M_DCTR                ;d
clenche HINT
725       P:0213 0A8985            jclr    #5,x:<<M_DSR,*                    ;at
tend que le 040 mette HF2
                 000213
726       P:0215 0A8506            bclr    #M_HINT,x:<<M_DCTR                ;co
upe HINTA
727       P:0216 0A89A5            jset    #5,x:<<M_DSR,*                    ;at
tend que le 040 efface HF2
                 000216
728    
729                                env     #>'CTK'
733                                env     #3
737       P:0222 0AF080            jmp     SAVE_REG
                 000236
738    
739                      ;------------------------------------------------------
------------------------
740                      ; H C =interruption par le 40
741                      ;------------------------------------------------------
------------------------
742                      HC_EXEP
743       P:0224 0A8526            bset    #M_HINT,x:<<M_DCTR                ;d
clenche HINT
744       P:0225 0A8985            jclr    #5,x:<<M_DSR,*                    ;at
tend que le 040 mette HF2
                 000225
745       P:0227 0A8506            bclr    #M_HINT,x:<<M_DCTR                ;co
upe HINTA
746       P:0228 0A89A5            jset    #5,x:<<M_DSR,*                    ;at
tend que le 040 efface HF2
Motorola DSP56000 Assembler  Version 4.1.1   00-01-00  00:00:00  DSP301.ASM
  Page 10



                 000228
747    
748                                env     #>'CTK'
752                                env     #4
756       P:0234 0AF080            jmp     SAVE_REG
                 000236
757    
758    
759                      ;------------------------------------------------------
------------------------
760                      ; la  on sauve l'etat du CPU
761                      ;------------------------------------------------------
------------------------
762                      SAVE_REG
763    
764    
765                                                                          ;*-
--------------------*
766                                                                          ;* 
SAUVE AGU
767                                                                          ;*-
--------------------*
768                                env     r0
772                                env     n0
776                                env     m0
780                                env     r1
784                                env     n1
788                                env     m1
792                                env     r2
796                                env     n2
800                                env     m2
804                                env     r3
808                                env     n3
812                                env     m3
816                                env     r4
820                                env     n4
824                                env     m4
828                                env     r5
832                                env     n5
836                                env     m5
840                                env     r6
844                                env     n6
848                                env     m6
852                                env     r7
856                                env     n7
860                                env     m7
864    
865                                                                          ;*-
--------------------*
866                                                                          ;* 
SAUVE ALU
867                                                                          ;*-
--------------------*
868                                env     a2
872                                env     a1
876                                env     a0
880                                env     b2
884                                env     b1
888                                env     b0
892    
893                                env     x1
Motorola DSP56000 Assembler  Version 4.1.1   00-01-00  00:00:00  DSP301.ASM
  Page 11



897                                env     x0
901    
902                                env     y1
906                                env     y0
910    
911    
912                                                                          ;*-
--------------------*
913                                                                          ;* 
SAUVE PCU
914                                                                          ;*-
--------------------*
915                                env     LA
919                                env     LC
923                                env     SSL
927                                env     SSH                               ;sp
-1
931                                env     SP                                ;sa
uve SP-1
935    
936    
937                                                                          ;*-
--------------------*
938                                                                          ;* 
recoit le contenu du buffer HOST  recevoir
939                                                                          ;* 
et le renvoie immdiatemment au 040
940                                                                          ;*-
--------------------*
941       P:02D2 44F400            move              #>'CTK',x0
                 43544B
942       P:02D4 60F400            move              #HOST_BUF,r0
                 0003B0
943                      _loop0    rec     a
947       P:02DA 07588E            move              a,p:(r0)+
948       P:02DB 200045            cmp     x0,a
949       P:02DC 0E22D6            jne     _loop0
950    
951       P:02DD 60F400            move              #HOST_BUF,r0
                 0003B0
952       P:02DF 000000            nop
953       P:02E0 07D88E  _loop00   move              p:(r0)+,a
954                                env     a
958       P:02E5 200045            cmp     x0,a
959       P:02E6 0E22E0            jne     _loop00
960    
961    
962    
963    
964                                                                          ;*-
--------------------*
965                                                                          ;* 
recoit le contenu du buffer HOST  rmettre
966                                                                          ;*-
--------------------*
967       P:02E7 60F400            move              #HOST_BUF,r0
                 0003B0
968                      _loop1    rec     a
972       P:02ED 07588E            move              a,p:(r0)+
973       P:02EE 200045            cmp     x0,a
974       P:02EF 0E22E9            jne     _loop1
Motorola DSP56000 Assembler  Version 4.1.1   00-01-00  00:00:00  DSP301.ASM
  Page 12



975    
976    
977    
978    
979       P:02F0 0C0106            jmp     MAIN
980                      ;------------------------------------------------------
------------------------
981    
982    
983    
984    
985    
986                      ;------------------------------------------------------
------------------------
987                      ; restauration des registres & compagnie
988                      ;------------------------------------------------------
------------------------
989                      RESTORE_REG
990                      RUN
991                      ;------------------------------------------------------
------------------------
992                                                                          ;*-
--------------------*
993                                                                          ; j
e remet mes exceptions
994                                                                          ;*-
--------------------*
995       P:02F1 44F400            move              #>$bf080,x0
                 0BF080
996    
997       P:02F3 300200            move              #2,r0                   ;ST
ACK ERROR
998       P:02F4 45F400            move              #>STACK,x1
                 0001F0
999       P:02F6 075884            move              x0,p:(r0)+
1000      P:02F7 075885            move              x1,p:(r0)+
1001   
1002      P:02F8 300800            move              #8,r0                   ;TR
AP
1003      P:02F9 45F400            move              #>TRAP,x1
                 000202
1004      P:02FB 075884            move              x0,p:(r0)+
1005      P:02FC 075885            move              x1,p:(r0)+
1006   
1007      P:02FD 300400            move              #$4,r0                  ;II
I
1008      P:02FE 45F400            move              #>III,x1
                 000212
1009      P:0300 075884            move              x0,p:(r0)+
1010      P:0301 075885            move              x1,p:(r0)+
1011   
1012   
1013   
1014                                                                         ;*-
--------------------*
1015                                                                         ;* 
je rmet les trucs coincs ds le HOST
1016                                                                         ;*-
--------------------*
1017      P:0302 60F400            move              #HOST_BUF,r0
                 0003B0
Motorola DSP56000 Assembler  Version 4.1.1   00-01-00  00:00:00  DSP301.ASM
  Page 13



1018      P:0304 44F400            move              #>'CTK',x0
                 43544B
1019                     _loop1
1020      P:0306 07D88E            move              p:(r0)+,a
1021      P:0307 200045            cmp     x0,a
1022      P:0308 0AF0AA            jeq     _fin0
                 00030F
1023                               env     a
1027      P:030E 0C0306            jmp     _loop1
1028                     _fin0
1029   
1030                                                                         ;*-
--------------------*
1031                                                                         ;* 
RESTORE AGU
1032                                                                         ;*-
--------------------*
1033                               rec     r0
1037                               rec     n0
1041                               rec     m0
1045                               rec     r1
1049                               rec     n1
1053                               rec     m1
1057                               rec     r2
1061                               rec     n2
1065                               rec     m2
1069                               rec     r3
1073                               rec     n3
1077                               rec     m3
1081                               rec     r4
1085                               rec     n4
1089                               rec     m4
1093                               rec     r5
1097                               rec     n5
1101                               rec     m5
1105                               rec     r6
1109                               rec     n6
1113                               rec     m6
1117                               rec     r7
1121                               rec     n7
1125                               rec     m7
1129   
1130                                                                         ;*-
--------------------*
1131                                                                         ;* 
RESTORE ALU
1132                                                                         ;*-
--------------------*
1133                               rec     a2
1137                               rec     a1
1141                               rec     a0
1145                               rec     b2
1149                               rec     b1
1153                               rec     b0
1157   
1158                               rec     x1
1162                               rec     x0
1166                               rec     y1
1170                               rec     y0
1174   
1175   
Motorola DSP56000 Assembler  Version 4.1.1   00-01-00  00:00:00  DSP301.ASM
  Page 14



1176                                                                         ;*-
--------------------*
1177                                                                         ;* 
RESTORE PCU
1178                                                                         ;*-
--------------------*
1179                               rec     LA
1183                               rec     LC
1187   
1188                               rec     SP                                ;r
cupere SP-1
1192                               rec     SSH                               ;sp
+1
1196                               rec     SSL
1200   
1201   
1202      P:03AB 0A89A5            jset    #5,x:<<M_DSR,*                    ;at
tend que le 040 efface HF2
                 0003AB
1203      P:03AD 000000            nop
1204      P:03AE 000000            nop
1205   
1206   
1207   
1208      P:03AF 000004            rti
1209   
1210                     ;*-----------------------------------------------------
------------------------
1211                     ;* Un buffer pour sauver les registres
1212                     ;*-----------------------------------------------------
------------------------
1213                     ;SAVE_AGU       ds      3*8
1214                     ;SAVE_ALU       ds      6+4
1215                     ;SAVE_LA                ds      1
1216                     ;SAVE_LC                ds      1
1217                     ;SAVE_SSL       ds      1
1218                     ;SAVE_SSH       ds      1
1219                     ;SAVE_SP                ds      1
1220                     ;SAVE_SS                ds      15*2
1221                     ;------------------------------------------------------
------------------------
1222      P:03B0         HOST_BUF  dc      'CTK'
1223      P:03B1                   ds      5
1224   
1225                     ;------------------------------------------------------
-----------------------
1226                     ; MAGIE !! MAGIE !!
1227                     ;------------------------------------------------------
-----------------------
1228      P:03B6                   dc      $5b042e,$312e02
1229      P:03B8         DMSP      dc      $00359F,$0078BA
1230                     ;------------------------------------------------------
-----------------------
1231   
1232   
1233                     END_DEBUG
1234   
1235   
1236   

0    Errors
Motorola DSP56000 Assembler  Version 4.1.1   00-01-00  00:00:00  DSP301.ASM
  Page 15



0    Warnings
