Motorola DSP56000 Assembler  Version 4.1.1   100-03-1908:05:28  08:05:28  
flamm192.asm  Page 1



1         00FFE0         PBC       equ     $ffe0
2         00FFE9         HSR       equ     $ffe9
3         00FFEB         HTX       equ     $ffeb
4      
5         P:0000                   org     p:$0
6         P:0000 0AF080            jmp     load
                 000040
7      
8         P:0040                   org     P:$40
9                        load
10        P:0040 05F420            move              #$ffff,m0
                 00FFFF
11        P:0042 05F421            move              #$ffff,m1
                 00FFFF
12        P:0044 05F422            move              #$ffff,m2
                 00FFFF
13        P:0046 05F423            move              #$ffff,m3
                 00FFFF
14        P:0048 05F424            move              #$ffff,m4
                 00FFFF
15        P:004A 05F425            move              #$ffff,m5
                 00FFFF
16        P:004C 05F426            move              #$ffff,m6
                 00FFFF
17        P:004E 05F427            move              #$ffff,m7
                 00FFFF
18        P:0050 380200            move              #$2,n0
19        P:0051 0BF080            jsr     load_palette
                 00009A
20        P:0053 0BF080            jsr     clear_ecran
                 0000A5
21        P:0055 60F400            move              #$3ff,r0
                 0003FF
22        P:0057 46F400            move              #$12d45f,y0
                 12D45F
23        P:0059 4E6000            move                          y0,y:(r0)
24                       start
25        P:005A 3C0100            move              #$1,n4
26        P:005B 66F400            move              #$500,r6                ;r6
     pointe sur l ecran + 1 ligne
                 000500
27        P:005D 67F400            move              #$501,r7                ;r7
     pointe sur l ecran + 1 pixel
                 000501
28        P:005F 60F400            move              #$200,r0
                 000200
29        P:0061 61F400            move              #$300,r1
                 000300
30        P:0063 62F400            move              #$400,r2
                 000400
31        P:0065 223300            move              r1,r3
32        P:0066 0BF080            jsr     charge_a_ligne
                 00007D
33        P:0068 225300            move              r2,r3
34        P:0069 0BF080            jsr     charge_a_ligne
                 00007D
35     
36        P:006B 067880            do      #120,fin_loop
                 000077
37     
38        P:006D 221300            move              r0,r3
Motorola DSP56000 Assembler  Version 4.1.1   100-03-1908:05:28  08:05:28  
flamm192.asm  Page 2



39        P:006E 223000            move              r1,r0
40        P:006F 225100            move              r2,r1
41        P:0070 227200            move              r3,r2
42        P:0071 0BF080            jsr     charge_a_ligne
                 00007D
43        P:0073 221300            move              r0,r3
44        P:0074 223400            move              r1,r4
45        P:0075 225500            move              r2,r5
46        P:0076 0BF080            jsr     creer_ligne
                 000087
47                       fin_loop
48        P:0078 0BF080            jsr     rempli_aleat
                 0000B3
49        P:007A 0BF080            jsr     send_data
                 000101
50     
51        P:007C 0C005A            jmp     start
52     
53                       charge_a_ligne:
54                       ;--------------
55        P:007D 06C280            do      #194,fin_charge
                 000080
56        P:007F 07DE85            move              p:(r6)+,x1
57        P:0080 4D5B00            move                          x1,y:(r3)+
58                       fin_charge
59        P:0081 22CC00            move              r6,a1
60        P:0082 2A0000            move              #0,a2
61        P:0083 230500            move              n0,x1
62        P:0084 200064            sub     x1,a
63        P:0085 219600            move              a1,r6
64        P:0086 00000C            rts
65     
66                       creer_ligne:
67                       ;-----------
68        P:0087 58DB00            move                          y:(r3)+,a0
69        P:0088 58DD00            move                          y:(r5)+,a0
70        P:0089 2E0000            move              #0,a
71        P:008A 2F0000            move              #0,b
72        P:008B 238500            move              n4,x1
73     
74        P:008C 06C080            do      #192,label2
                 000098
75        P:008E 5CDC00            move                          y:(r4)+,a1
76        P:008F 5DEC00            move                          y:(r4+n4),b1
77        P:0090 5DDB10            add     b,a                   y:(r3)+,b1
78        P:0091 5DDD10            add     b,a                   y:(r5)+,b1
79        P:0092 200010            add     b,a
80                       ;       bchg    #3,a1
81        P:0093 200023            lsr     a
82        P:0094 200023            lsr     a
83        P:0095 0AF0AA            jeq     zero
                 000098
84        P:0097 200064            sub     x1,a
85        P:0098 075F8C  zero      move              a1,p:(r7)+
86                       label2
87        P:0099 00000C            rts
88     
89                       load_palette:
90                       ;------------
91        P:009A 370000            move              #0,r7
92        P:009B 060081            do      #256,load_pal1
Motorola DSP56000 Assembler  Version 4.1.1   100-03-1908:05:28  08:05:28  
flamm192.asm  Page 3



                 0000A3
93                       load_pal2
94        P:009D 08F4A0            movep             #1,X:PBC
                 000001
95        P:009F 0AA980            jclr    #0,x:HSR,load_pal2
                 00009D
96        P:00A1 50F000            move              x:HTX,a0
                 00FFEB
97        P:00A3 585F00            move                          a0,y:(r7)+
98                       load_pal1
99        P:00A4 00000C            rts
100    
101    
102                      clear_ecran:
103                      ;-----------
104       P:00A5 66F400            move              #$500,r6
                 000500
105       P:00A7 240000            move              #0,x0
106       P:00A8 06408B            do      #2880,fin_clr
                 0000B1
107       P:00AA 075E84            move              x0,p:(r6)+
108       P:00AB 075E84            move              x0,p:(r6)+
109       P:00AC 075E84            move              x0,p:(r6)+
110       P:00AD 075E84            move              x0,p:(r6)+
111       P:00AE 075E84            move              x0,p:(r6)+
112       P:00AF 075E84            move              x0,p:(r6)+
113       P:00B0 075E84            move              x0,p:(r6)+
114       P:00B1 075E84            move              x0,p:(r6)+
115                      fin_clr
116       P:00B2 00000C            rts
117    
118                      rempli_aleat:
119                      ;------------
120       P:00B3 66F400            move              #$5f00,r6
                 005F00
121    
122       P:00B5 2D3F00            move              #$3f,b1                 ; f
123       P:00B6 291500            move              #$15,b0                 ;$4
5
124       P:00B7 212700            move              b0,y1
125       P:00B8 21A600            move              b1,y0
126    
127       P:00B9 068081            do      #384,fin_rempli
                 0000BF
128       P:00BB 0BF080            jsr     nb_aleat
                 0000F1
129       P:00BD 200056            and     y0,a
130       P:00BE 200070            add     y1,a
131       P:00BF 075E8C            move              a1,p:(r6)+
132                      fin_rempli
133    
134       P:00C0 06C080            do      #192,fin_rempli1
                 0000C7
135       P:00C2 0BF080            jsr     nb_aleat
                 0000F1
136       P:00C4 200056            and     y0,a
137       P:00C5 200070            add     y1,a
138       P:00C6 200070            add     y1,a
139       P:00C7 075E8C            move              a1,p:(r6)+
140                      fin_rempli1
141       P:00C8 2F0000            move              #0,b
Motorola DSP56000 Assembler  Version 4.1.1   100-03-1908:05:28  08:05:28  
flamm192.asm  Page 4



142       P:00C9 238D00            move              n4,b1
143       P:00CA 0BF080            jsr     nb_aleat
                 0000F1
144       P:00CC 200056            and     y0,a
145       P:00CD 200010            add     b,a
146       P:00CE 2DFF00            move              #$ff,b1
147       P:00CF 21A600            move              b1,y0
148    
149    
150       P:00D0 2DC000            move              #192,b1
151    
152       P:00D1 06CC00            do      a1,fin_pti_carre_blanc
                 0000EF
153       P:00D3 66F400            move              #$5f00,r6
                 005F00
154       P:00D5 0BF080            jsr     nb_aleat
                 0000F1
155       P:00D7 200056            and     y0,a
156       P:00D8 20000D            cmp     a,b
157       P:00D9 0AF0A9            jlt     clip
                 0000EF
158    
159       P:00DB 22C700            move              r6,y1
160       P:00DC 200070            add     y1,a
161       P:00DD 219600            move              a1,r6
162       P:00DE 000000            nop
163       P:00DF 075E86            move              y0,p:(r6)+
164       P:00E0 075E86            move              y0,p:(r6)+
165       P:00E1 075E86            move              y0,p:(r6)+
166       P:00E2 21A700            move              b1,y1
167       P:00E3 200070            add     y1,a
168       P:00E4 219600            move              a1,r6
169       P:00E5 000000            nop
170       P:00E6 075E86            move              y0,p:(r6)+
171       P:00E7 075E86            move              y0,p:(r6)+
172       P:00E8 075E86            move              y0,p:(r6)+
173       P:00E9 200070            add     y1,a
174       P:00EA 219600            move              a1,r6
175       P:00EB 000000            nop
176       P:00EC 075E86            move              y0,p:(r6)+
177       P:00ED 075E86            move              y0,p:(r6)+
178       P:00EE 075E86            move              y0,p:(r6)+
179                      clip
180       P:00EF 000000            nop
181                      fin_pti_carre_blanc
182       P:00F0 00000C            rts
183    
184                      nb_aleat:
185                      ;--------
186       P:00F1 62F400            move              #13017,r2
                 0032D9
187       P:00F3 60F400            move              #$3ff,r0
                 0003FF
188       P:00F5 44F400            move              #$4b17f3,x0
                 4B17F3
189       P:00F7 4DE000            move                          y:(r0),x1
190       P:00F8 2000A0            mpy     x0,x1,a
191       P:00F9 200022            asr     a
192       P:00FA 224400            move              r2,x0
193       P:00FB 200020            add     x,a
194    
Motorola DSP56000 Assembler  Version 4.1.1   100-03-1908:05:28  08:05:28  
flamm192.asm  Page 5



195       P:00FC 5C6000            move                          a1,y:(r0)
196    
197       P:00FD 210C00            move              a0,a1
198       P:00FE 280000            move              #0,a0
199       P:00FF 2A0000            move              #0,a2
200       P:0100 00000C            rts
201    
202                      send_data:
203                      ;---------
204       P:0101 66F400            move              #$500,r6
                 000500
205       P:0103 330000            move              #$0,r3
206       P:0104 44F400            move              #23040,x0
                 005A00
207       P:0106 06C400            do      x0,fin_send
                 00010D
208       P:0108 07DE9B            move              p:(r6)+,n3
209                      wait_send
210       P:0109 0AA981            jclr    #1,X:HSR,wait_send
                 000109
211       P:010B 4DEB00            move                          y:(r3+n3),x1
212       P:010C 457000            move              x1,X:HTX
                 00FFEB
213                      fin_send
214       P:010E 00000C            rts

0    Errors
0    Warnings
