Motorola DSP56000 Assembler  Version 4.1.1   100-05-1612:14:18  12:14:18  
FLAMM5.ASM  Page 1



1         00FFE0         PBC       equ     $ffe0
2         00FFE9         HSR       equ     $ffe9
3         00FFEB         HTX       equ     $ffeb
4      
5         P:0000                   org     p:$0
6         P:0000 0AF080            jmp     load
                 000040
7      
8         P:0040                   org     P:$40
9                        load
10        P:0040 05F420            move              #$ffff,m0
                 00FFFF
11        P:0042 05F421            move              #$ffff,m1
                 00FFFF
12        P:0044 05F422            move              #$ffff,m2
                 00FFFF
13        P:0046 05F423            move              #$ffff,m3
                 00FFFF
14        P:0048 05F424            move              #$ffff,m4
                 00FFFF
15        P:004A 05F425            move              #$ffff,m5
                 00FFFF
16        P:004C 05F426            move              #$ffff,m6
                 00FFFF
17        P:004E 05F427            move              #$ffff,m7
                 00FFFF
18        P:0050 380200            move              #$2,n0
19        P:0051 3D0D00            move              #13,n5
20        P:0052 0BF080            jsr     calcul_tab
                 0000CC
21        P:0054 0BF080            jsr     load_palette
                 0000DF
22        P:0056 0BF080            jsr     clear_ecran
                 0000EA
23        P:0058 60F400            move              #$3ff,r0
                 0003FF
24        P:005A 46F400            move              #$12d45f,y0
                 12D45F
25        P:005C 4E6000            move                          y0,y:(r0)
26                       start
27        P:005D 2E0000            move              #0,a
28        P:005E 08F4A0            movep             #1,X:PBC
                 000001
29        P:0060 0AA980            jclr    #0,x:HSR,start
                 00005D
30        P:0062 54F000            move              x:HTX,a1
                 00FFEB
31     
32        P:0064 2F0000            move              #0,b
33        P:0065 20000D            cmp     a,b
34        P:0066 0AF0AA            jeq     calcul_flammes
                 000085
35     
36        P:0068 219700            move              a1,r7
37        P:0069 3FC000            move              #192,n7
38                       start123
39        P:006A 08F4A0            movep             #1,X:PBC
                 000001
40        P:006C 0AA980            jclr    #0,x:HSR,start123
                 00006A
41        P:006E 44F000            move              x:HTX,x0
Motorola DSP56000 Assembler  Version 4.1.1   100-05-1612:14:18  12:14:18  
FLAMM5.ASM  Page 2



                 00FFEB
42     
43        P:0070 50F400            move              #$180,a0
                 000180
44        P:0072 210700            move              a0,y1
45        P:0073 2E0000            move              #0,a
46        P:0074 060880            do      #8,calcul_flammes
                 000084
47        P:0076 22F600            move              r7,r6
48        P:0077 06C400            do      x0,calcul_flammes0
                 000083
49                       wait23
50        P:0079 08F4A0            movep             #1,X:PBC
                 000001
51        P:007B 0AA980            jclr    #0,x:HSR,wait23
                 000079
52        P:007D 51F000            move              x:HTX,b0
                 00FFEB
53        P:007F 20000D            cmp     a,b
54        P:0080 0AF0A2            jne     joker
                 000083
55        P:0082 076687            move              y1,p:(r6)
56                       joker
57        P:0083 07DE86            move              p:(r6)+,y0
58                       calcul_flammes0
59        P:0084 07CF85            move              p:(r7)+n7,x1
60                       calcul_flammes
61        P:0085 3C0200            move              #$2,n4
62        P:0086 66F400            move              #$500,r6                ;r6
     pointe sur l ecran + 1 ligne
                 000500
63        P:0088 67F400            move              #$501,r7                ;r7
     pointe sur l ecran + 1 pixel
                 000501
64        P:008A 60F400            move              #$200,r0
                 000200
65        P:008C 61F400            move              #$300,r1
                 000300
66        P:008E 62F400            move              #$400,r2
                 000400
67        P:0090 223300            move              r1,r3
68        P:0091 0BF080            jsr     charge_a_ligne
                 0000A6
69        P:0093 225300            move              r2,r3
70        P:0094 0BF080            jsr     charge_a_ligne
                 0000A6
71     
72        P:0096 067880            do      #120,fin_loop
                 0000A2
73     
74        P:0098 221300            move              r0,r3
75        P:0099 223000            move              r1,r0
76        P:009A 225100            move              r2,r1
77        P:009B 227200            move              r3,r2
78        P:009C 0BF080            jsr     charge_a_ligne
                 0000A6
79        P:009E 221300            move              r0,r3
80        P:009F 223400            move              r1,r4
81        P:00A0 225500            move              r2,r5
82        P:00A1 0BF080            jsr     creer_ligne
                 0000B0
Motorola DSP56000 Assembler  Version 4.1.1   100-05-1612:14:18  12:14:18  
FLAMM5.ASM  Page 3



83                       fin_loop
84        P:00A3 0BF080            jsr     rempli_aleat
                 0000F8
85                       ;       jsr     send_data
86     
87        P:00A5 0C005D            jmp     start
88     
89                       charge_a_ligne:
90                       ;--------------
91        P:00A6 06C280            do      #194,fin_charge
                 0000A9
92        P:00A8 07DE85            move              p:(r6)+,x1
93        P:00A9 4D5B00            move                          x1,y:(r3)+
94                       fin_charge
95        P:00AA 22CC00            move              r6,a1
96        P:00AB 2A0000            move              #0,a2
97        P:00AC 230500            move              n0,x1
98        P:00AD 200064            sub     x1,a
99        P:00AE 219600            move              a1,r6
100       P:00AF 00000C            rts
101    
102                      creer_ligne:
103                      ;-----------
104       P:00B0 22DA00            move              r6,n2
105       P:00B1 223B00            move              r1,n3
106       P:00B2 66F400            move              #$3600,r6
                 003600
107       P:00B4 310000            move              #0,r1
108       P:00B5 58DB00            move                          y:(r3)+,a0
109       P:00B6 58DD00            move                          y:(r5)+,a0
110       P:00B7 2E0000            move              #0,a
111       P:00B8 2F0000            move              #0,b
112       P:00B9 5DEC00            move                          y:(r4+n4),b1
113       P:00BA 5CDC00            move                          y:(r4)+,a1
114    
115       P:00BB 06C080            do      #192,label2
                 0000C8
116       P:00BD 5DDB10            add     b,a                   y:(r3)+,b1
117       P:00BE 5DDD10            add     b,a                   y:(r5)+,b1
118       P:00BF 5DEC10            add     b,a                   y:(r4+n4),b1
119       P:00C0 219E00            move              a1,n6
120       P:00C1 5CDC00            move                          y:(r4)+,a1
121       P:00C2 71EE00            move              x:(r6+n6),n1
122       P:00C3 075F99            move              n1,p:(r7)+
123                      wait_send1
124       P:00C4 0AA981            jclr    #1,X:HSR,wait_send1
                 0000C4
125       P:00C6 4DE900            move                          y:(r1+n1),x1
126       P:00C7 457000            move              x1,X:HTX
                 00FFEB
127    
128                      label2
129       P:00C9 235600            move              n2,r6
130       P:00CA 237100            move              n3,r1
131       P:00CB 00000C            rts
132    
133                      calcul_tab
134       P:00CC 67F400            move              #$3600,r7
                 003600
135       P:00CE 2D0100            move              #1,b1
136       P:00CF 21A500            move              b1,x1
Motorola DSP56000 Assembler  Version 4.1.1   100-05-1612:14:18  12:14:18  
FLAMM5.ASM  Page 4



137       P:00D0 2F0000            move              #0,b
138       P:00D1 060088            do      #512*4,fin_calcul
                 0000DD
139       P:00D3 21EE00            move              b,a
140    
141                      ;       bchg    #3,a1
142       P:00D4 200023            lsr     a
143       P:00D5 200023            lsr     a
144       P:00D6 0AF0AA            jeq     zero
                 0000DC
145       P:00D8 200064            sub     x1,a
146       P:00D9 0AF0AA            jeq     zero
                 0000DC
147       P:00DB 200064            sub     x1,a
148                      zero
149       P:00DC 545F00            move              a1,x:(r7)+
150       P:00DD 200068            add     x1,b
151                      fin_calcul
152       P:00DE 00000C            rts
153    
154    
155                      load_palette:
156                      ;------------
157       P:00DF 370000            move              #0,r7
158       P:00E0 060082            do      #512,load_pal1
                 0000E8
159                      load_pal2
160       P:00E2 08F4A0            movep             #1,X:PBC
                 000001
161       P:00E4 0AA980            jclr    #0,x:HSR,load_pal2
                 0000E2
162       P:00E6 50F000            move              x:HTX,a0
                 00FFEB
163       P:00E8 585F00            move                          a0,y:(r7)+
164                      load_pal1
165       P:00E9 00000C            rts
166    
167    
168                      clear_ecran:
169                      ;-----------
170       P:00EA 66F400            move              #$500,r6
                 000500
171       P:00EC 240000            move              #0,x0
172       P:00ED 06408B            do      #2880,fin_clr
                 0000F6
173       P:00EF 075E84            move              x0,p:(r6)+
174       P:00F0 075E84            move              x0,p:(r6)+
175       P:00F1 075E84            move              x0,p:(r6)+
176       P:00F2 075E84            move              x0,p:(r6)+
177       P:00F3 075E84            move              x0,p:(r6)+
178       P:00F4 075E84            move              x0,p:(r6)+
179       P:00F5 075E84            move              x0,p:(r6)+
180       P:00F6 075E84            move              x0,p:(r6)+
181                      fin_clr
182       P:00F7 00000C            rts
183    
184                      rempli_aleat:
185                      ;------------
186       P:00F8 66F400            move              #$5f00,r6
                 005F00
187    
Motorola DSP56000 Assembler  Version 4.1.1   100-05-1612:14:18  12:14:18  
FLAMM5.ASM  Page 5



188       P:00FA 2D3F00            move              #$3f,b1                 ; f
189       P:00FB 298000            move              #$80,b0                 ;$4
5
190       P:00FC 212700            move              b0,y1
191       P:00FD 21A600            move              b1,y0
192    
193       P:00FE 068081            do      #384,fin_rempli
                 000104
194       P:0100 0BF080            jsr     nb_aleat
                 00013C
195       P:0102 200056            and     y0,a
196       P:0103 200070            add     y1,a
197       P:0104 075E8C            move              a1,p:(r6)+
198                      fin_rempli
199    
200       P:0105 2D3F00            move              #$3f,b1                 ; f
201       P:0106 298500            move              #$85,b0                 ;$4
5
202       P:0107 212700            move              b0,y1
203       P:0108 21A600            move              b1,y0
204    
205    
206       P:0109 06C080            do      #192,fin_rempli1
                 00010F
207       P:010B 0BF080            jsr     nb_aleat
                 00013C
208       P:010D 200056            and     y0,a
209       P:010E 200070            add     y1,a
210       P:010F 075E8C            move              a1,p:(r6)+
211                      fin_rempli1
212    
213       P:0110 2D1F00            move              #$1f,b1                 ; f
214       P:0111 21A600            move              b1,y0
215    
216       P:0112 2F0000            move              #0,b
217       P:0113 23AD00            move              n5,b1
218       P:0114 0BF080            jsr     nb_aleat
                 00013C
219       P:0116 200056            and     y0,a
220       P:0117 200010            add     b,a
221       P:0118 55F400            move              #$1ff,b1
                 0001FF
222       P:011A 21A600            move              b1,y0
223    
224    
225       P:011B 2DC000            move              #192,b1
226    
227       P:011C 06CC00            do      a1,fin_pti_carre_blanc
                 00013A
228       P:011E 66F400            move              #$5f00,r6
                 005F00
229       P:0120 0BF080            jsr     nb_aleat
                 00013C
230       P:0122 200056            and     y0,a
231       P:0123 20000D            cmp     a,b
232       P:0124 0AF0A9            jlt     clip
                 00013A
233    
234       P:0126 22C700            move              r6,y1
235       P:0127 200070            add     y1,a
236       P:0128 219600            move              a1,r6
Motorola DSP56000 Assembler  Version 4.1.1   100-05-1612:14:18  12:14:18  
FLAMM5.ASM  Page 6



237       P:0129 000000            nop
238       P:012A 075E86            move              y0,p:(r6)+
239       P:012B 075E86            move              y0,p:(r6)+
240       P:012C 075E86            move              y0,p:(r6)+
241       P:012D 21A700            move              b1,y1
242       P:012E 200070            add     y1,a
243       P:012F 219600            move              a1,r6
244       P:0130 000000            nop
245       P:0131 075E86            move              y0,p:(r6)+
246       P:0132 075E86            move              y0,p:(r6)+
247       P:0133 075E86            move              y0,p:(r6)+
248       P:0134 200070            add     y1,a
249       P:0135 219600            move              a1,r6
250       P:0136 000000            nop
251       P:0137 075E86            move              y0,p:(r6)+
252       P:0138 075E86            move              y0,p:(r6)+
253       P:0139 075E86            move              y0,p:(r6)+
254                      clip
255       P:013A 000000            nop
256                      fin_pti_carre_blanc
257       P:013B 00000C            rts
258    
259                      nb_aleat:
260                      ;--------
261       P:013C 62F400            move              #13017,r2
                 0032D9
262       P:013E 60F400            move              #$3ff,r0
                 0003FF
263       P:0140 44F400            move              #$4b17f3,x0
                 4B17F3
264       P:0142 4DE000            move                          y:(r0),x1
265       P:0143 2000A0            mpy     x0,x1,a
266       P:0144 200022            asr     a
267       P:0145 224400            move              r2,x0
268       P:0146 200020            add     x,a
269    
270       P:0147 5C6000            move                          a1,y:(r0)
271    
272       P:0148 210C00            move              a0,a1
273       P:0149 280000            move              #0,a0
274       P:014A 2A0000            move              #0,a2
275       P:014B 00000C            rts
276    
277                      send_data:
278                      ;---------
279       P:014C 66F400            move              #$500,r6
                 000500
280       P:014E 330000            move              #$0,r3
281       P:014F 44F400            move              #23040,x0
                 005A00
282       P:0151 06C400            do      x0,fin_send
                 000158
283       P:0153 07DE9B            move              p:(r6)+,n3
284                      wait_send
285       P:0154 0AA981            jclr    #1,X:HSR,wait_send
                 000154
286       P:0156 4DEB00            move                          y:(r3+n3),x1
287       P:0157 457000            move              x1,X:HTX
                 00FFEB
288                      fin_send
289       P:0159 00000C            rts
Motorola DSP56000 Assembler  Version 4.1.1   100-05-1612:14:18  12:14:18  
FLAMM5.ASM  Page 7




0    Errors
0    Warnings
