Motorola DSP56000 Assembler  Version 4.1.1   95-07-13  23:25:28  rsnd.ASM
  Page 1



1                        ;--------------------------------------------
2                        ;        REAL SOUND PLAYER      n voix      -
3                        ;             v1.00                         -
4                        ;       coded by : NEW_FACE                 -
5                        ;                                           -
6                        ;        =95  EXA !!                        -
7                        ;                                           -
8                        ;--------------------------------------------
9                        ;
10                       ;
11                       ;*MEMORY NOTE:
12                       ; we use from y:$3a30 to y:$4000 (from p:$3a50 to p:$40
00)
13                       ;    and from x:$3000 to x:$381e
14                       ;
15                       ;*REGISTERS NOTE
16                       ; we use R7 M7 for SSI transmit !
17                       ;you are free to change them !
18                       ;
19                       ;*DIVERS:
20                       ;you are to use this rout as long as you tell
21                       ;my name: NEW-FACE
22     
23     
24     
25     
26     
27                                 OPT     NOW
28     
29        00FFE0         PBC       equ     $ffe0                             ;Po
rt B Control register
30        00FFE1         PCC       equ     $ffe1                             ;Po
rt C Control register
31        00FFE2         PBDDR     equ     $ffe2                             ;Po
rt B Data Direction Register
32        00FFE3         PCDDR     equ     $ffe3                             ;Po
rt C Data Direction Register
33        00FFE4         PBD       equ     $ffe4                             ;Po
rt B Data register
34        00FFE5         PCD       equ     $ffe5                             ;Po
rt C Data register
35        00FFE8         HCR       equ     $ffe8                             ;Ho
st Control Register
36        00FFE9         HSR       equ     $ffe9                             ;Ho
st Status Register
37        00FFEB         HRX       equ     $ffeb                             ;Ho
st Receive Register
38        00FFEB         HTX       equ     $ffeb                             ;Ho
st Transmit Register
39        00FFEC         CRA       equ     $ffec                             ;SS
I Control Register A
40        00FFED         CRB       equ     $ffed                             ;SS
I Control Register B
41        00FFEE         SSISR     equ     $ffee                             ;SS
I Status Register
42        00FFEE         SSITSR    equ     $ffee                             ;SS
I Time Slot Register
43        00FFEF         RX        equ     $ffef                             ;SS
I Serial Receive data/shift register
44        00FFEF         TX        equ     $ffef                             ;SS
I Serial Transmit data/shift register
Motorola DSP56000 Assembler  Version 4.1.1   95-07-13  23:25:28  rsnd.ASM
  Page 2



45        00FFF0         SCR       equ     $fff0                             ;SC
I Control Register
46        00FFF1         SSR       equ     $fff1                             ;SC
I Status Register
47        00FFF2         SCCR      equ     $fff2                             ;SC
I Clock Control Register
48        00FFF3         STXA      equ     $fff3                             ;SC
I Transmit data Address Register
49        00FFF4         SRX       equ     $fff4                             ;SC
I Receive data register (4-5-6)
50        00FFF4         STX       equ     $fff4                             ;SC
I Transmit data register (4-5-6)
51        00FFFE         BCR       equ     $fffe                             ;Po
rt A Bus Control Register
52        00FFFF         IPR       equ     $ffff                             ;In
terrupt Priority Register
53     
54                       size_buffer
55        000800                   equ     $800
56     
57                       rhost     MACRO   dest
58   m                             jclr    #0,x:<<HSR,*
59   m                             movep   x:<<HRX,dest
60   m                             ENDM
61                       whost     MACRO   source
62   m                             jclr    #1,x:<<HSR,*
63   m                             movep   source,x:<<HTX
64   m                             ENDM
65     
66     
67        P:0000                   org     p:0
68        P:0000 0AF080            jmp     start_snd
                 003A30
69     
70        P:0010                   org     p:$10
71        P:0010 08DFAF            movep             x:(r7)+,x:<<TX
72        P:0011 000000            nop
73        P:0012 08DFAF            movep             x:(r7)+,x:<<TX          ;ex
ception transmission
74                                                                           ;(e
viter les trop grands REP, sinon le son est dgeu )
75        P:0013 000000            nop
76        P:0026                   org     p:$26
77        P:0026 0BF080            jsr     cmd
                 003A7E
78        P:0028 0BF080            jsr     loader
                 003A45
79     
80        P:3A30                   org     p:$4000-$5d0
81                       ;--------------------------------------------
82                       start_snd
83        P:3A30 0AA803            bclr    #3,x:<<HCR
84        P:3A31 08F4A0            movep             #1,x:<<PBC              ;Ho
st enable
                 000001
85        P:3A33 08F4A8            movep             #$04,x:<<HCR            ;Ho
st Command
                 000004
86        P:3A35 08F4BF            movep             #>$3800,x:<<IPR         ;SS
I en IPL3, Host en IPL2
                 003800
Motorola DSP56000 Assembler  Version 4.1.1   95-07-13  23:25:28  rsnd.ASM
  Page 3



87        P:3A37 08F4AC            movep             #$4100,x:<<CRA          ;SS
I en 2 mots/frame, 16 bits
                 004100
88        P:3A39 08F4AD            movep             #$0800,x:<<CRB          ;SS
I off
                 000800
89        P:3A3B 08F4A1            movep             #$01f8,x:<<PCC          ;Po
rt C en SSI
                 0001F8
90        P:3A3D 08F4A3            movep             #$0008,x:<<PCDDR        ;Id
em
                 000008
91        P:3A3F 00F0B8            andi    #%11110000,mr
92        P:3A40 0BF080            jsr     init_buffer
                 003B77
93        P:3A42 0AA823            bset    #3,x:<<HCR                        ;fi
n d'initialisation (sources de plantages...)
94        P:3A43 0AF080            jmp     *
                 003A43
95     
96                       loader
97        P:3A45 00F0B8            andi    #<$F0,mr
98        P:3A46 05F420            move              #>-1,m0
                 FFFFFF
99        P:3A48 70F400            move              #>1,n0
                 000001
100       P:3A4A 0450BB            movec             sp,r0
101       P:3A4B 0001F8            ori     #<1,mr
102       P:3A4C 044010            lua     (r0)-n0,r0
103       P:3A4D 61F400            move              #>load_register,r1
                 003A7A
104       P:3A4F 04D0BB            movec             r0,sp
105                      restart
106       P:3A50 0BE180            jsr     (r1)
107       P:3A51 209A00            move              x0,n2
108       P:3A52 62F400            move              #list_cmd,r2
                 003A59
109       P:3A54 000000            nop
110       P:3A55 07EA92            move              p:(r2+n2),r2
111       P:3A56 000000            nop
112       P:3A57 0AE280            jmp     (r2)
113       P:3A58                   dc      0
114                      list_cmd
115       P:3A59                   dc      memoryp
116       P:3A5A                   dc      memoryx
117       P:3A5B                   dc      memoryy
118                      memoryp
119       P:3A5C 0BE180            jsr     (r1)
120       P:3A5D 209000            move              x0,r0
121       P:3A5E 0BE180            jsr     (r1)
122       P:3A5F 06C400            do      x0,_loop
                 003A63
123                                rhost   p:(r0)+
126                      _loop
127       P:3A64 0AF080            jmp     restart
                 003A50
128    
129                      memoryx
130       P:3A66 0BE180            jsr     (r1)
131       P:3A67 209000            move              x0,r0
132       P:3A68 0BE180            jsr     (r1)
Motorola DSP56000 Assembler  Version 4.1.1   95-07-13  23:25:28  rsnd.ASM
  Page 4



133       P:3A69 06C400            do      x0,_loop
                 003A6D
134                                rhost   x:(r0)+
137                      _loop
138       P:3A6E 0AF080            jmp     restart
                 003A50
139    
140                      memoryy
141       P:3A70 0BE180            jsr     (r1)
142       P:3A71 209000            move              x0,r0
143       P:3A72 0BE180            jsr     (r1)
144       P:3A73 06C400            do      x0,_loop
                 003A77
145                                rhost   y:(r0)+
148                      _loop
149       P:3A78 0AF080            jmp     restart
                 003A50
150    
151                      load_register
152                                rhost   x0
155       P:3A7D 00000C            rts
156    
157                      ;--------------------------------------------
158                      cmd
159       P:3A7E 0BF080            jsr     save_reg
                 003B8A
160       P:3A80 0AA803            bclr    #3,x:<<HCR
161                                rhost   a
164       P:3A84 200003            tst     a
165       P:3A85 0AF0AA            jeq     coupe
                 003B72
166                      ;--------------------------------------------
167       P:3A87 6EF013            clr     a                     y:ptr_buf,r6
                 003BEE
168       P:3A89 05F426            movec             #size_buffer-1,m6
                 0007FF
169       P:3A8B 5E7000            move                          a,y:move
                 003BED
170       P:3A8D 22EE00            move              r7,a
171       P:3A8E 22C400            move              r6,x0
172       P:3A8F 44F444            sub     x0,a      #>size_buffer,x0        ;r7
-r6
                 000800
173       P:3A91 200003            tst     a
174       P:3A92 0AF0A7            jgt     _go_for_that
                 003A95
175       P:3A94 200040            add     x0,a
176                      _go_for_that
177       P:3A95 200022            asr     a
178       P:3A96 5E7013            clr     a                     a,y:loop
                 003BF4
179       P:3A98 3E0200            move              #2,n6
180       P:3A99 23D900            move              n6,n1
181       P:3A9A 23DA00            move              n6,n2
182    
183       P:3A9B 61F400            move              #copy_mem,r1            ;so
urce
                 003B53
184       P:3A9D 56F400            move              #>5,a                   ;nb
                 000005
185       P:3A9F 324000            move              #$40,r2                 ;de
Motorola DSP56000 Assembler  Version 4.1.1   95-07-13  23:25:28  rsnd.ASM
  Page 5



st
186       P:3AA0 0BF080            jsr     copy_double_dest
                 003AFF
187    
188       P:3AA2 61F400            move              #copy_mem2,r1           ;so
urce
                 003B6C
189       P:3AA4 56F400            move              #>6,a                   ;nb
                 000006
190       P:3AA6 0BF080            jsr     copy_double_dest
                 003AFF
191    
192       P:3AA8 44F400            move              #>0,x0
                 000000
193    
194       P:3AAA 22D300            move              r6,r3
195                      ;       X:r6=r3=BUFFER_COURANT
196                      ;voix1
197                      _loop_all_voice
198                                rhost   a
201       P:3AAE 44F400            move              #>$1234,x0
                 001234
202       P:3AB0 200045            cmp     x0,a
203       P:3AB1 0AF0AA            jeq     _end_of_voice
                 003AD0
204       P:3AB3 5C7000            move                          a1,y:control_da
ta
                 003BEF
205       P:3AB5 0BF080            jsr     go_for_voice_8bits                ;(t
ester si 16 bits)
                 003B06
206       P:3AB7 227600            move              r3,r6
207       P:3AB8 000000            nop
208       P:3AB9 205E00            move              (r6)+
209       P:3ABA 0B7060            btst    #0,y:control_data
                 003BEF
210       P:3ABC 03034E            tcc     x0,b      r3,r6                   ;si
 voix gauche.
211       P:3ABD 0AF0A8            jcs     _voix_droite
                 003AC3
212       P:3ABF 0A7060            bset    #0,y:move
                 003BED
213       P:3AC1 0AF080            jmp     _next
                 003AC5
214                      _voix_droite
215       P:3AC3 0A7061            bset    #1,y:move
                 003BED
216                      _next
217                      ;{      reste identique pour du 8 ou 16 bits.
218       P:3AC5 61F400            move              #calc_freq_voice_move,r1
                 003B40
219       P:3AC7 62F400            move              #calc_freq_voice_add,r2
                 003B58
220       P:3AC9 0B7061            btst    #1,y:control_data
                 003BEF
221       P:3ACB 03814A            tcs     x0,b      r1,r2
222       P:3ACC 000000            nop
223       P:3ACD 0BE280            jsr     (r2)
224       P:3ACE 0AF080            jmp     _loop_all_voice
                 003AAB
225    
Motorola DSP56000 Assembler  Version 4.1.1   95-07-13  23:25:28  rsnd.ASM
  Page 6



226                      ;--------------------------------------------
227    
228                      ;       si fini en voix droite soustraire 1 a r6
229                      _end_of_voice
230       P:3AD0 5FF000            move                          y:loop,b
                 003BF4
231       P:3AD2 46F400            move              #>1,y0
                 000001
232       P:3AD4 22D200            move              r6,r2
233       P:3AD5 4CF05C            sub     y0,b                  y:move,x0
                 003BED
234       P:3AD7 0AC420            jset    #0,x0,_no_clr_left_data
                 003ADD
235       P:3AD9 227613            clr     a         r3,r6
236       P:3ADA 06CF00            do      b,_no_clr_left_data
                 003ADC
237       P:3ADC 564E00            move              a,x:(r6)+n6
238                      _no_clr_left_data
239       P:3ADD 205B00            move              (r3)+
240       P:3ADE 0AC421            jset    #1,x0,_no_clr_right_data
                 003AE4
241       P:3AE0 227613            clr     a         r3,r6
242       P:3AE1 06CF00            do      b,_no_clr_right_data
                 003AE3
243       P:3AE3 564E00            move              a,x:(r6)+n6
244                      _loop_clr_right_data
245                      _no_clr_right_data
246       P:3AE4 225600            move              r2,r6
247       P:3AE5 0B7060            btst    #0,y:control_data
                 003BEF
248       P:3AE7 0AF0A0            jcc     _voix_gauche
                 003AEA
249       P:3AE9 205600            move              (r6)-
250                      _voix_gauche
251       P:3AEA 61F400            move              #copy_mem,r1            ;so
urce ;remet en etat la memoire interne
                 003B53
252       P:3AEC 56F400            move              #>5,a                   ;nb
                 000005
253       P:3AEE 324000            move              #$40,r2                 ;de
st
254       P:3AEF 0BF080            jsr     copy_double_dest
                 003AFF
255    
256       P:3AF1 61F400            move              #copy_mem2,r1           ;so
urce
                 003B6C
257       P:3AF3 56F400            move              #>6,a                   ;nb
                 000006
258       P:3AF5 0BF080            jsr     copy_double_dest
                 003AFF
259    
260       P:3AF7 6E7000            move                          r6,y:ptr_buf
                 003BEE
261    
262       P:3AF9 08F4AD            movep             #>$5800,x:<<CRB
                 005800
263       P:3AFB 0AA823            bset    #3,x:<<HCR
264       P:3AFC 0BF080            jsr     restore_reg
                 003BC6
265       P:3AFE 000004            rti
Motorola DSP56000 Assembler  Version 4.1.1   95-07-13  23:25:28  rsnd.ASM
  Page 7



266    
267                      copy_double_dest
268       P:3AFF 06CE00            do      a,_loop_copy
                 003B04
269       P:3B01 5EE100            move                          y:(r1),a
270       P:3B02 07E284            movem             p:(r2),x0
271       P:3B03 4C5900            move                          x0,y:(r1)+
272       P:3B04 075A8E            move              a,p:(r2)+
273                      _loop_copy
274       P:3B05 00000C            rts
275    
276    
277                      ;--------------------------------------------
278                      go_for_voice_8bits
279                                rhost   a
282       P:3B09 5E7000            move                          a,y:vol_sample 
;volume_sample
                 003BF2
283                                rhost   x0                                ;fr
eq sample
286       P:3B0E 4C7000            move                          x0,y:freq_sampl
e
                 003BF3
287       P:3B10 4DF000            move                          y:loop,x1
                 003BF4
288       P:3B12 61F4A0            mpy     x0,x1,a   #buffer_inter,r1        ;ad
dresse_buffer_inter
                 003BF7
289                                whost   a                                 ;nb
r_octet_a_transferer
292       P:3B17 62F422            asr     a         #buffer_inter+1,r2
                 003BF8
293       P:3B19 50F400            move              #>0,a0
                 000000
294       P:3B1B 45F403            tst     a         #>$ff0000,x1
                 FF0000
295       P:3B1D 0AF0AA            jeq     _loop_nothing                     ;(s
ample nul)
                 003B3D
296                                rhost   b1
299       P:3B22 0ACD00            jclr    #0,b1,_no_first_parite
                 003B28
300                                rhost   y:(r1)+
303       P:3B27 205A00            move              (r2)+
304                      _no_first_parite
305       P:3B28 46F400            move              #>$80,y0
                 000080
306       P:3B2A 47F400            move              #>$8000,y1
                 008000
307                      ;separe_les_sample
308       P:3B2C 204100            move              (r1)-n1
309    
310                      ;{
311       P:3B2D 06CE00            do      a,_loop_separe_sample
                 003B34
312                                rhost   x0
315       P:3B32 5E49D0            mpy     x0,y0,a               a,y:(r1)+n1
316       P:3B33 210EC8            mpy     x0,y1,b   a0,a
317       P:3B34 594A66            and     x1,a                  b0,y:(r2)+n2
318                      _loop_separe_sample
319                      ;}
Motorola DSP56000 Assembler  Version 4.1.1   95-07-13  23:25:28  rsnd.ASM
  Page 8



320                                rhost   x0
323       P:3B38 5E49D0            mpy     x0,y0,a               a,y:(r1)+n1
324       P:3B39 210EC8            mpy     x0,y1,b   a0,a
325       P:3B3A 594A66            and     x1,a                  b0,y:(r2)+n2
326       P:3B3B 5E4900            move                          a,y:(r1)+n1
327       P:3B3C 00000C            rts
328                      _loop_nothing
329       P:3B3D 200013            clr     a
330       P:3B3E 5E6100            move                          a,y:(r1)
331       P:3B3F 00000C            rts
332                      ;--------------------------------------------
333    
334    
335    
336                      ;--------------------------------------------
337                      ;       sample_move
338                      ;--------------------------------------------
339                      calc_freq_voice_move
340       P:3B40 5FF000            move                          y:loop,b
                 003BF4
341       P:3B42 46F400            move              #>1,y0
                 000001
342       P:3B44 4EF05C            sub     y0,b                  y:vol_sample,y0
                 003BF2
343       P:3B46 21FB1B            clr     b         b,n3
344       P:3B47 59F000            move                          y:freq_sample,b
0
                 003BF3
345       P:3B49 62F43A            asl     b         #buffer_inter,r2
                 003BF7
346       P:3B4B 224E00            move              r2,a
347       P:3B4C 21A500            move              b1,x1
348       P:3B4D 212400            move              b0,x0
349       P:3B4E 4FE200            move                          y:(r2),y1   ;pr
emier_sample
350       P:3B4F 224E00            move              r2,a
351       P:3B50 200020            add     x,a
352       P:3B51 2000B8            mpy     y1,y0,b
353       P:3B52 0C0040            jmp     $40
354                      copy_mem
355       P:0040 P:3B53                   org     pi:$40,p:
356       P:0040 P:3B53 06DB00            do      n3,_loop_move_voice           
    ;mettre en mem p:interne
                        000043
357       P:0042 P:3B55                   dc      $cd4eb8
358       P:0043 P:3B56 21D220            add     x,a       a,r2
359                             _loop_move_voice
360       P:0044 P:3B57 00000C            rts
361       P:3B58                   org     p:
362                      ;--------------------------------------------
363                      ;       dc $cd4eb8      quivaut a
364                      ;       mpy y1,y0,b     b,x:(r6)+n6     y:(r2),y1
365                      ;--------------------------------------------
366    
367                      ;--------------------------------------------
368                      ;       sample_add
369                      ;--------------------------------------------
370                      calc_freq_voice_add
371       P:3B58 5FF000            move                          y:loop,b
                 003BF4
372       P:3B5A 46F400            move              #>1,y0
Motorola DSP56000 Assembler  Version 4.1.1   95-07-13  23:25:28  rsnd.ASM
  Page 9



                 000001
373       P:3B5C 4EF05C            sub     y0,b                  y:vol_sample,y0
                 003BF2
374       P:3B5E 21FB1B            clr     b         b,n3
375       P:3B5F 59F000            move                          y:freq_sample,b
0
                 003BF3
376       P:3B61 62F43A            asl     b         #buffer_inter,r2
                 003BF7
377       P:3B63 21A500            move              b1,x1
378       P:3B64 212400            move              b0,x0
379       P:3B65 224E00            move              r2,a
380       P:3B66 57E600            move              x:(r6),b
381       P:3B67 4FE200            move                          y:(r2),y1
382       P:3B68 2000BA            mac     y1,y0,b
383       P:3B69 200020            add     x,a
384       P:3B6A 21D200            move              a,r2
385       P:3B6B 0C0045            jmp     $45
386                      copy_mem2
387       P:0045 P:3B6C                   org     pi:$45,p:
388       P:0045 P:3B6C 06DB00            do      n3,_loop_add_voice            
    ;mettre en mem p:interne
                        000049
389       P:0047 P:3B6E 574E20            add     x,a       b,x:(r6)+n6
390       P:0048 P:3B6F CDC600            move              x:(r6),b    y:(r2),y
1
391       P:0049 P:3B70 21D2BA            mac     y1,y0,b   a,r2
392                             _loop_add_voice
393       P:004A P:3B71 00000C            rts
394       P:3B72                   org     p:
395                      coupe
396       P:3B72 08F4AD            movep             #$0800,x:<<CRB          ;SS
I off
                 000800
397       P:3B74 0BF080            jsr     restore_reg
                 003BC6
398       P:3B76 000004            rti
399                      ;--------------------------------------------
400    
401    
402                      ;--------------------------------------------
403                      ;       r6 r7
404                      ;--------------------------------------------
405    
406                      init_buffer
407       P:3B77 44F400            move              #>$0,x0
                 000000
408       P:3B79 67F400            move              #buffer,r7              ;in
it_addresse
                 003000
409       P:3B7B 0600A8            rep     #size_buffer
410       P:3B7C 445F00            move              x0,x:(r7)+
411       P:3B7D 66F400            move              #buffer_inter,r6        ;in
it_addresse
                 003BF7
412       P:3B7F 0600A4            rep     #1024
413       P:3B80 4C5E00            move                          x0,y:(r6)+
414       P:3B81 67F400            move              #buffer,r7              ;in
it_addresse
                 003000
415       P:3B83 66F400            move              #buffer,r6              ;in
Motorola DSP56000 Assembler  Version 4.1.1   95-07-13  23:25:28  rsnd.ASM
  Page 10



it_addresse
                 003000
416       P:3B85 05F427            movec             #size_buffer-1,M7
                 0007FF
417       P:3B87 6E7000            move                          r6,y:ptr_buf
                 003BEE
418       P:3B89 00000C            rts
419    
420                      ;--------------------------------------------
421    
422                      save_reg
423       P:3B8A 0053B8            andi    #%01010011,mr                     ;Vi
rer: NO(scaling, trace, loop)
424       P:3B8B 617000            move              r1,x:sauve
                 003800
425       P:3B8D 61F400            move              #sauve+1,r1
                 003801
426       P:3B8F 000000            nop
427       P:3B90 665900            move              r6,x:(r1)+
428       P:3B91 055926            move              m6,x:(r1)+
429       P:3B92 765900            move              n6,x:(r1)+
430       P:3B93 625900            move              r2,x:(r1)+
431       P:3B94 055922            move              m2,x:(r1)+
432       P:3B95 725900            move              n2,x:(r1)+
433       P:3B96 635900            move              r3,x:(r1)+
434       P:3B97 055923            move              m3,x:(r1)+
435       P:3B98 735900            move              n3,x:(r1)+
436       P:3B99 525900            move              a2,x:(r1)+
437       P:3B9A 545900            move              a1,x:(r1)+
438       P:3B9B 505900            move              a0,x:(r1)+
439       P:3B9C 535900            move              b2,x:(r1)+
440       P:3B9D 555900            move              b1,x:(r1)+
441       P:3B9E 515900            move              b0,x:(r1)+
442       P:3B9F 445900            move              x0,x:(r1)+
443       P:3BA0 455900            move              x1,x:(r1)+
444       P:3BA1 465900            move              y0,x:(r1)+
445       P:3BA2 715900            move              n1,x:(r1)+
446       P:3BA3 475900            move              y1,x:(r1)+
447       P:3BA4 055921            move              m1,x:(r1)+
448       P:3BA5 05F421            movec             #-1,m1
                 FFFFFF
449       P:3BA7 0462A1            movec             m1,m2
450       P:3BA8 0463A1            movec             m1,m3
451       P:3BA9 61F400            move              #resend1,r1             ;pa
r NULLOS/DNT
                 003BF0
452       P:3BAB 44F400            move              #'RSP',x0               ;Id
entification du mixeur
                 525350
453       P:3BAD 208641            tfr     x0,a      x0,y0                   ;
454                                whost   x0                                ;On
 l'envoie au 030, les deux
457       P:3BB1 20C700  _link     move              y0,y1                   ;te
sts tant en quinconce.
458       P:3BB2 21C600            move              a,y0                    ;
459                                rhost   a                                 ;At
tendre celui donn par le 030,
462       P:3BB6 200045            cmp     x0,a                              ;en
 notant un ventuel envoi Host
463       P:3BB7 0AF0A2            jne     _link                             ;in
terrompu.
Motorola DSP56000 Assembler  Version 4.1.1   95-07-13  23:25:28  rsnd.ASM
  Page 11



                 003BB1
464                                whost   y0                                ;Ec
hange avec le 030 ce que l'on
467                                whost   y1                                ;a 
intercept.
470                                rhost   y:(r1)+                           ;
473                                rhost   y:(r1)+                           ;
476       P:3BC5 00000C            rts
477    
478                      ;--------------------------------------------
479    
480    
481                      restore_reg
482                      HostResend                                          ;pa
r NULLOS/DNT
483       P:3BC6 44F400            move              #'RSP',x0               ;Re
mplir le port Host avec ce
                 525350
484       P:3BC8 61F400            move              #resend1,r1             ;qu
'il contenait au moment de
                 003BF0
485                                .loop   #2                                ;l'
interruption  destination
487       P:3BCC 5ED900            move                          y:(r1)+,a   ;du
 68030...
488       P:3BCD 200045            cmp     x0,a                              ;
489       P:3BCE 0AF0AA            jeq     _nosend                           ;
                 003BD1
490       P:3BD0 08CE2B            movep             a,x:<<HTX               ;
491       P:3BD1 000000  _nosend   nop                                       ;
492                                .endl                                     ;
494       P:3BD2 61F400            move              #sauve+1,r1
                 003801
495       P:3BD4 000000            nop
496       P:3BD5 66D900            move              x:(r1)+,r6
497       P:3BD6 05D926            move              x:(r1)+,m6
498       P:3BD7 76D900            move              x:(r1)+,n6
499       P:3BD8 62D900            move              x:(r1)+,r2
500       P:3BD9 05D922            move              x:(r1)+,m2
501       P:3BDA 72D900            move              x:(r1)+,n2
502       P:3BDB 63D900            move              x:(r1)+,r3
503       P:3BDC 05D923            move              x:(r1)+,m3
504       P:3BDD 73D900            move              x:(r1)+,n3
505       P:3BDE 52D900            move              x:(r1)+,a2
506       P:3BDF 54D900            move              x:(r1)+,a1
507       P:3BE0 50D900            move              x:(r1)+,a0
508       P:3BE1 53D900            move              x:(r1)+,b2
509       P:3BE2 55D900            move              x:(r1)+,b1
510       P:3BE3 51D900            move              x:(r1)+,b0
511       P:3BE4 44D900            move              x:(r1)+,x0
512       P:3BE5 45D900            move              x:(r1)+,x1
513       P:3BE6 46D900            move              x:(r1)+,y0
514       P:3BE7 71D900            move              x:(r1)+,n1
515       P:3BE8 47D900            move              x:(r1)+,y1
516       P:3BE9 05D921            move              x:(r1)+,m1
517       P:3BEA 61F000            move              x:sauve,r1
                 003800
518       P:3BEC 00000C            rts
519    
520                      ;--------------------------------------------
521    
Motorola DSP56000 Assembler  Version 4.1.1   95-07-13  23:25:28  rsnd.ASM
  Page 12



522                      end_prog
523       P:3BED         move      ds      1
524       P:3BEE         ptr_buf   ds      1
525                      control_data
526       P:3BEF                   dc      2
527       P:3BF0         resend1   ds      1
528       P:3BF1         resend2   ds      1
529       P:3BF2         vol_sample dc     $400000
530                      freq_sample
531       P:3BF3                   dc      $14d8dc
532       P:3BF4         loop      ds      1
533       P:3BF5                   ds      2
534                      buffer_inter
535       P:3BF7                   ds      1024
536       P:3FF7         taille_prg dc     *-start_snd
537       X:3000                   org     x:$3000
538       X:3000         buffer    ds      size_buffer
539       X:3800         sauve     ds      30
540    
541                      ;--------------------------------------------

0    Errors
0    Warnings
